
./tcp_tool:     file format elf64-x86-64


Disassembly of section .init:

0000000000400d58 <_init>:
  400d58:	48 83 ec 08          	sub    $0x8,%rsp
  400d5c:	48 8b 05 95 72 20 00 	mov    0x207295(%rip),%rax        # 607ff8 <_DYNAMIC+0x1e0>
  400d63:	48 85 c0             	test   %rax,%rax
  400d66:	74 05                	je     400d6d <_init+0x15>
  400d68:	e8 63 01 00 00       	callq  400ed0 <__gmon_start__@plt>
  400d6d:	48 83 c4 08          	add    $0x8,%rsp
  400d71:	c3                   	retq   

Disassembly of section .plt:

0000000000400d80 <free@plt-0x10>:
  400d80:	ff 35 82 72 20 00    	pushq  0x207282(%rip)        # 608008 <_GLOBAL_OFFSET_TABLE_+0x8>
  400d86:	ff 25 84 72 20 00    	jmpq   *0x207284(%rip)        # 608010 <_GLOBAL_OFFSET_TABLE_+0x10>
  400d8c:	0f 1f 40 00          	nopl   0x0(%rax)

0000000000400d90 <free@plt>:
  400d90:	ff 25 82 72 20 00    	jmpq   *0x207282(%rip)        # 608018 <_GLOBAL_OFFSET_TABLE_+0x18>
  400d96:	68 00 00 00 00       	pushq  $0x0
  400d9b:	e9 e0 ff ff ff       	jmpq   400d80 <_init+0x28>

0000000000400da0 <__errno_location@plt>:
  400da0:	ff 25 7a 72 20 00    	jmpq   *0x20727a(%rip)        # 608020 <_GLOBAL_OFFSET_TABLE_+0x20>
  400da6:	68 01 00 00 00       	pushq  $0x1
  400dab:	e9 d0 ff ff ff       	jmpq   400d80 <_init+0x28>

0000000000400db0 <strncpy@plt>:
  400db0:	ff 25 72 72 20 00    	jmpq   *0x207272(%rip)        # 608028 <_GLOBAL_OFFSET_TABLE_+0x28>
  400db6:	68 02 00 00 00       	pushq  $0x2
  400dbb:	e9 c0 ff ff ff       	jmpq   400d80 <_init+0x28>

0000000000400dc0 <pcap_setfilter@plt>:
  400dc0:	ff 25 6a 72 20 00    	jmpq   *0x20726a(%rip)        # 608030 <_GLOBAL_OFFSET_TABLE_+0x30>
  400dc6:	68 03 00 00 00       	pushq  $0x3
  400dcb:	e9 b0 ff ff ff       	jmpq   400d80 <_init+0x28>

0000000000400dd0 <pcap_next@plt>:
  400dd0:	ff 25 62 72 20 00    	jmpq   *0x207262(%rip)        # 608038 <_GLOBAL_OFFSET_TABLE_+0x38>
  400dd6:	68 04 00 00 00       	pushq  $0x4
  400ddb:	e9 a0 ff ff ff       	jmpq   400d80 <_init+0x28>

0000000000400de0 <inet_ntoa@plt>:
  400de0:	ff 25 5a 72 20 00    	jmpq   *0x20725a(%rip)        # 608040 <_GLOBAL_OFFSET_TABLE_+0x40>
  400de6:	68 05 00 00 00       	pushq  $0x5
  400deb:	e9 90 ff ff ff       	jmpq   400d80 <_init+0x28>

0000000000400df0 <__stack_chk_fail@plt>:
  400df0:	ff 25 52 72 20 00    	jmpq   *0x207252(%rip)        # 608048 <_GLOBAL_OFFSET_TABLE_+0x48>
  400df6:	68 06 00 00 00       	pushq  $0x6
  400dfb:	e9 80 ff ff ff       	jmpq   400d80 <_init+0x28>

0000000000400e00 <snprintf@plt>:
  400e00:	ff 25 4a 72 20 00    	jmpq   *0x20724a(%rip)        # 608050 <_GLOBAL_OFFSET_TABLE_+0x50>
  400e06:	68 07 00 00 00       	pushq  $0x7
  400e0b:	e9 70 ff ff ff       	jmpq   400d80 <_init+0x28>

0000000000400e10 <pcap_close@plt>:
  400e10:	ff 25 42 72 20 00    	jmpq   *0x207242(%rip)        # 608058 <_GLOBAL_OFFSET_TABLE_+0x58>
  400e16:	68 08 00 00 00       	pushq  $0x8
  400e1b:	e9 60 ff ff ff       	jmpq   400d80 <_init+0x28>

0000000000400e20 <gettimeofday@plt>:
  400e20:	ff 25 3a 72 20 00    	jmpq   *0x20723a(%rip)        # 608060 <_GLOBAL_OFFSET_TABLE_+0x60>
  400e26:	68 09 00 00 00       	pushq  $0x9
  400e2b:	e9 50 ff ff ff       	jmpq   400d80 <_init+0x28>

0000000000400e30 <__assert_fail@plt>:
  400e30:	ff 25 32 72 20 00    	jmpq   *0x207232(%rip)        # 608068 <_GLOBAL_OFFSET_TABLE_+0x68>
  400e36:	68 0a 00 00 00       	pushq  $0xa
  400e3b:	e9 40 ff ff ff       	jmpq   400d80 <_init+0x28>

0000000000400e40 <fputs@plt>:
  400e40:	ff 25 2a 72 20 00    	jmpq   *0x20722a(%rip)        # 608070 <_GLOBAL_OFFSET_TABLE_+0x70>
  400e46:	68 0b 00 00 00       	pushq  $0xb
  400e4b:	e9 30 ff ff ff       	jmpq   400d80 <_init+0x28>

0000000000400e50 <memset@plt>:
  400e50:	ff 25 22 72 20 00    	jmpq   *0x207222(%rip)        # 608078 <_GLOBAL_OFFSET_TABLE_+0x78>
  400e56:	68 0c 00 00 00       	pushq  $0xc
  400e5b:	e9 20 ff ff ff       	jmpq   400d80 <_init+0x28>

0000000000400e60 <fputc@plt>:
  400e60:	ff 25 1a 72 20 00    	jmpq   *0x20721a(%rip)        # 608080 <_GLOBAL_OFFSET_TABLE_+0x80>
  400e66:	68 0d 00 00 00       	pushq  $0xd
  400e6b:	e9 10 ff ff ff       	jmpq   400d80 <_init+0x28>

0000000000400e70 <__libc_start_main@plt>:
  400e70:	ff 25 12 72 20 00    	jmpq   *0x207212(%rip)        # 608088 <_GLOBAL_OFFSET_TABLE_+0x88>
  400e76:	68 0e 00 00 00       	pushq  $0xe
  400e7b:	e9 00 ff ff ff       	jmpq   400d80 <_init+0x28>

0000000000400e80 <memcmp@plt>:
  400e80:	ff 25 0a 72 20 00    	jmpq   *0x20720a(%rip)        # 608090 <_GLOBAL_OFFSET_TABLE_+0x90>
  400e86:	68 0f 00 00 00       	pushq  $0xf
  400e8b:	e9 f0 fe ff ff       	jmpq   400d80 <_init+0x28>

0000000000400e90 <pcap_geterr@plt>:
  400e90:	ff 25 02 72 20 00    	jmpq   *0x207202(%rip)        # 608098 <_GLOBAL_OFFSET_TABLE_+0x98>
  400e96:	68 10 00 00 00       	pushq  $0x10
  400e9b:	e9 e0 fe ff ff       	jmpq   400d80 <_init+0x28>

0000000000400ea0 <signal@plt>:
  400ea0:	ff 25 fa 71 20 00    	jmpq   *0x2071fa(%rip)        # 6080a0 <_GLOBAL_OFFSET_TABLE_+0xa0>
  400ea6:	68 11 00 00 00       	pushq  $0x11
  400eab:	e9 d0 fe ff ff       	jmpq   400d80 <_init+0x28>

0000000000400eb0 <pcap_open_offline@plt>:
  400eb0:	ff 25 f2 71 20 00    	jmpq   *0x2071f2(%rip)        # 6080a8 <_GLOBAL_OFFSET_TABLE_+0xa8>
  400eb6:	68 12 00 00 00       	pushq  $0x12
  400ebb:	e9 c0 fe ff ff       	jmpq   400d80 <_init+0x28>

0000000000400ec0 <fprintf@plt>:
  400ec0:	ff 25 ea 71 20 00    	jmpq   *0x2071ea(%rip)        # 6080b0 <_GLOBAL_OFFSET_TABLE_+0xb0>
  400ec6:	68 13 00 00 00       	pushq  $0x13
  400ecb:	e9 b0 fe ff ff       	jmpq   400d80 <_init+0x28>

0000000000400ed0 <__gmon_start__@plt>:
  400ed0:	ff 25 e2 71 20 00    	jmpq   *0x2071e2(%rip)        # 6080b8 <_GLOBAL_OFFSET_TABLE_+0xb8>
  400ed6:	68 14 00 00 00       	pushq  $0x14
  400edb:	e9 a0 fe ff ff       	jmpq   400d80 <_init+0x28>

0000000000400ee0 <memcpy@plt>:
  400ee0:	ff 25 da 71 20 00    	jmpq   *0x2071da(%rip)        # 6080c0 <_GLOBAL_OFFSET_TABLE_+0xc0>
  400ee6:	68 15 00 00 00       	pushq  $0x15
  400eeb:	e9 90 fe ff ff       	jmpq   400d80 <_init+0x28>

0000000000400ef0 <inet_aton@plt>:
  400ef0:	ff 25 d2 71 20 00    	jmpq   *0x2071d2(%rip)        # 6080c8 <_GLOBAL_OFFSET_TABLE_+0xc8>
  400ef6:	68 16 00 00 00       	pushq  $0x16
  400efb:	e9 80 fe ff ff       	jmpq   400d80 <_init+0x28>

0000000000400f00 <malloc@plt>:
  400f00:	ff 25 ca 71 20 00    	jmpq   *0x2071ca(%rip)        # 6080d0 <_GLOBAL_OFFSET_TABLE_+0xd0>
  400f06:	68 17 00 00 00       	pushq  $0x17
  400f0b:	e9 70 fe ff ff       	jmpq   400d80 <_init+0x28>

0000000000400f10 <__isoc99_sscanf@plt>:
  400f10:	ff 25 c2 71 20 00    	jmpq   *0x2071c2(%rip)        # 6080d8 <_GLOBAL_OFFSET_TABLE_+0xd8>
  400f16:	68 18 00 00 00       	pushq  $0x18
  400f1b:	e9 60 fe ff ff       	jmpq   400d80 <_init+0x28>

0000000000400f20 <pcap_compile@plt>:
  400f20:	ff 25 ba 71 20 00    	jmpq   *0x2071ba(%rip)        # 6080e0 <_GLOBAL_OFFSET_TABLE_+0xe0>
  400f26:	68 19 00 00 00       	pushq  $0x19
  400f2b:	e9 50 fe ff ff       	jmpq   400d80 <_init+0x28>

0000000000400f30 <pcap_freecode@plt>:
  400f30:	ff 25 b2 71 20 00    	jmpq   *0x2071b2(%rip)        # 6080e8 <_GLOBAL_OFFSET_TABLE_+0xe8>
  400f36:	68 1a 00 00 00       	pushq  $0x1a
  400f3b:	e9 40 fe ff ff       	jmpq   400d80 <_init+0x28>

0000000000400f40 <ntohs@plt>:
  400f40:	ff 25 aa 71 20 00    	jmpq   *0x2071aa(%rip)        # 6080f0 <_GLOBAL_OFFSET_TABLE_+0xf0>
  400f46:	68 1b 00 00 00       	pushq  $0x1b
  400f4b:	e9 30 fe ff ff       	jmpq   400d80 <_init+0x28>

0000000000400f50 <getopt@plt>:
  400f50:	ff 25 a2 71 20 00    	jmpq   *0x2071a2(%rip)        # 6080f8 <_GLOBAL_OFFSET_TABLE_+0xf8>
  400f56:	68 1c 00 00 00       	pushq  $0x1c
  400f5b:	e9 20 fe ff ff       	jmpq   400d80 <_init+0x28>

0000000000400f60 <pcap_open_live@plt>:
  400f60:	ff 25 9a 71 20 00    	jmpq   *0x20719a(%rip)        # 608100 <_GLOBAL_OFFSET_TABLE_+0x100>
  400f66:	68 1d 00 00 00       	pushq  $0x1d
  400f6b:	e9 10 fe ff ff       	jmpq   400d80 <_init+0x28>

0000000000400f70 <sprintf@plt>:
  400f70:	ff 25 92 71 20 00    	jmpq   *0x207192(%rip)        # 608108 <_GLOBAL_OFFSET_TABLE_+0x108>
  400f76:	68 1e 00 00 00       	pushq  $0x1e
  400f7b:	e9 00 fe ff ff       	jmpq   400d80 <_init+0x28>

0000000000400f80 <exit@plt>:
  400f80:	ff 25 8a 71 20 00    	jmpq   *0x20718a(%rip)        # 608110 <_GLOBAL_OFFSET_TABLE_+0x110>
  400f86:	68 1f 00 00 00       	pushq  $0x1f
  400f8b:	e9 f0 fd ff ff       	jmpq   400d80 <_init+0x28>

0000000000400f90 <fwrite@plt>:
  400f90:	ff 25 82 71 20 00    	jmpq   *0x207182(%rip)        # 608118 <_GLOBAL_OFFSET_TABLE_+0x118>
  400f96:	68 20 00 00 00       	pushq  $0x20
  400f9b:	e9 e0 fd ff ff       	jmpq   400d80 <_init+0x28>

0000000000400fa0 <pcap_datalink@plt>:
  400fa0:	ff 25 7a 71 20 00    	jmpq   *0x20717a(%rip)        # 608120 <_GLOBAL_OFFSET_TABLE_+0x120>
  400fa6:	68 21 00 00 00       	pushq  $0x21
  400fab:	e9 d0 fd ff ff       	jmpq   400d80 <_init+0x28>

0000000000400fb0 <ntohl@plt>:
  400fb0:	ff 25 72 71 20 00    	jmpq   *0x207172(%rip)        # 608128 <_GLOBAL_OFFSET_TABLE_+0x128>
  400fb6:	68 22 00 00 00       	pushq  $0x22
  400fbb:	e9 c0 fd ff ff       	jmpq   400d80 <_init+0x28>

0000000000400fc0 <strerror@plt>:
  400fc0:	ff 25 6a 71 20 00    	jmpq   *0x20716a(%rip)        # 608130 <_GLOBAL_OFFSET_TABLE_+0x130>
  400fc6:	68 23 00 00 00       	pushq  $0x23
  400fcb:	e9 b0 fd ff ff       	jmpq   400d80 <_init+0x28>

Disassembly of section .text:

0000000000400fd0 <_start>:
  400fd0:	31 ed                	xor    %ebp,%ebp
  400fd2:	49 89 d1             	mov    %rdx,%r9
  400fd5:	5e                   	pop    %rsi
  400fd6:	48 89 e2             	mov    %rsp,%rdx
  400fd9:	48 83 e4 f0          	and    $0xfffffffffffffff0,%rsp
  400fdd:	50                   	push   %rax
  400fde:	54                   	push   %rsp
  400fdf:	49 c7 c0 20 59 40 00 	mov    $0x405920,%r8
  400fe6:	48 c7 c1 b0 58 40 00 	mov    $0x4058b0,%rcx
  400fed:	48 c7 c7 fa 26 40 00 	mov    $0x4026fa,%rdi
  400ff4:	e8 77 fe ff ff       	callq  400e70 <__libc_start_main@plt>
  400ff9:	f4                   	hlt    
  400ffa:	66 0f 1f 44 00 00    	nopw   0x0(%rax,%rax,1)

0000000000401000 <deregister_tm_clones>:
  401000:	b8 27 82 60 00       	mov    $0x608227,%eax
  401005:	55                   	push   %rbp
  401006:	48 2d 20 82 60 00    	sub    $0x608220,%rax
  40100c:	48 83 f8 0e          	cmp    $0xe,%rax
  401010:	48 89 e5             	mov    %rsp,%rbp
  401013:	77 02                	ja     401017 <deregister_tm_clones+0x17>
  401015:	5d                   	pop    %rbp
  401016:	c3                   	retq   
  401017:	b8 00 00 00 00       	mov    $0x0,%eax
  40101c:	48 85 c0             	test   %rax,%rax
  40101f:	74 f4                	je     401015 <deregister_tm_clones+0x15>
  401021:	5d                   	pop    %rbp
  401022:	bf 20 82 60 00       	mov    $0x608220,%edi
  401027:	ff e0                	jmpq   *%rax
  401029:	0f 1f 80 00 00 00 00 	nopl   0x0(%rax)

0000000000401030 <register_tm_clones>:
  401030:	b8 20 82 60 00       	mov    $0x608220,%eax
  401035:	55                   	push   %rbp
  401036:	48 2d 20 82 60 00    	sub    $0x608220,%rax
  40103c:	48 c1 f8 03          	sar    $0x3,%rax
  401040:	48 89 e5             	mov    %rsp,%rbp
  401043:	48 89 c2             	mov    %rax,%rdx
  401046:	48 c1 ea 3f          	shr    $0x3f,%rdx
  40104a:	48 01 d0             	add    %rdx,%rax
  40104d:	48 d1 f8             	sar    %rax
  401050:	75 02                	jne    401054 <register_tm_clones+0x24>
  401052:	5d                   	pop    %rbp
  401053:	c3                   	retq   
  401054:	ba 00 00 00 00       	mov    $0x0,%edx
  401059:	48 85 d2             	test   %rdx,%rdx
  40105c:	74 f4                	je     401052 <register_tm_clones+0x22>
  40105e:	5d                   	pop    %rbp
  40105f:	48 89 c6             	mov    %rax,%rsi
  401062:	bf 20 82 60 00       	mov    $0x608220,%edi
  401067:	ff e2                	jmpq   *%rdx
  401069:	0f 1f 80 00 00 00 00 	nopl   0x0(%rax)

0000000000401070 <__do_global_dtors_aux>:
  401070:	80 3d c1 71 20 00 00 	cmpb   $0x0,0x2071c1(%rip)        # 608238 <completed.6973>
  401077:	75 11                	jne    40108a <__do_global_dtors_aux+0x1a>
  401079:	55                   	push   %rbp
  40107a:	48 89 e5             	mov    %rsp,%rbp
  40107d:	e8 7e ff ff ff       	callq  401000 <deregister_tm_clones>
  401082:	5d                   	pop    %rbp
  401083:	c6 05 ae 71 20 00 01 	movb   $0x1,0x2071ae(%rip)        # 608238 <completed.6973>
  40108a:	f3 c3                	repz retq 
  40108c:	0f 1f 40 00          	nopl   0x0(%rax)

0000000000401090 <frame_dummy>:
  401090:	48 83 3d 78 6d 20 00 	cmpq   $0x0,0x206d78(%rip)        # 607e10 <__JCR_END__>
  401097:	00 
  401098:	74 1e                	je     4010b8 <frame_dummy+0x28>
  40109a:	b8 00 00 00 00       	mov    $0x0,%eax
  40109f:	48 85 c0             	test   %rax,%rax
  4010a2:	74 14                	je     4010b8 <frame_dummy+0x28>
  4010a4:	55                   	push   %rbp
  4010a5:	bf 10 7e 60 00       	mov    $0x607e10,%edi
  4010aa:	48 89 e5             	mov    %rsp,%rbp
  4010ad:	ff d0                	callq  *%rax
  4010af:	5d                   	pop    %rbp
  4010b0:	e9 7b ff ff ff       	jmpq   401030 <register_tm_clones>
  4010b5:	0f 1f 00             	nopl   (%rax)
  4010b8:	e9 73 ff ff ff       	jmpq   401030 <register_tm_clones>

00000000004010bd <init_rtt>:
  4010bd:	55                   	push   %rbp
  4010be:	48 89 e5             	mov    %rsp,%rbp
  4010c1:	48 83 ec 10          	sub    $0x10,%rsp
  4010c5:	48 89 7d f8          	mov    %rdi,-0x8(%rbp)
  4010c9:	48 8b 45 f8          	mov    -0x8(%rbp),%rax
  4010cd:	ba 0c 00 00 00       	mov    $0xc,%edx
  4010d2:	be 00 00 00 00       	mov    $0x0,%esi
  4010d7:	48 89 c7             	mov    %rax,%rdi
  4010da:	e8 71 fd ff ff       	callq  400e50 <memset@plt>
  4010df:	48 8b 45 f8          	mov    -0x8(%rbp),%rax
  4010e3:	c7 40 08 e8 03 00 00 	movl   $0x3e8,0x8(%rax)
  4010ea:	c9                   	leaveq 
  4010eb:	c3                   	retq   

00000000004010ec <update_rtt>:
  4010ec:	55                   	push   %rbp
  4010ed:	48 89 e5             	mov    %rsp,%rbp
  4010f0:	48 89 7d f8          	mov    %rdi,-0x8(%rbp)
  4010f4:	89 75 f4             	mov    %esi,-0xc(%rbp)
  4010f7:	83 7d f4 00          	cmpl   $0x0,-0xc(%rbp)
  4010fb:	75 07                	jne    401104 <update_rtt+0x18>
  4010fd:	c7 45 f4 01 00 00 00 	movl   $0x1,-0xc(%rbp)
  401104:	48 8b 45 f8          	mov    -0x8(%rbp),%rax
  401108:	8b 00                	mov    (%rax),%eax
  40110a:	85 c0                	test   %eax,%eax
  40110c:	75 1f                	jne    40112d <update_rtt+0x41>
  40110e:	8b 45 f4             	mov    -0xc(%rbp),%eax
  401111:	c1 e0 03             	shl    $0x3,%eax
  401114:	89 c2                	mov    %eax,%edx
  401116:	48 8b 45 f8          	mov    -0x8(%rbp),%rax
  40111a:	89 10                	mov    %edx,(%rax)
  40111c:	8b 45 f4             	mov    -0xc(%rbp),%eax
  40111f:	c1 e0 02             	shl    $0x2,%eax
  401122:	89 c2                	mov    %eax,%edx
  401124:	48 8b 45 f8          	mov    -0x8(%rbp),%rax
  401128:	89 50 04             	mov    %edx,0x4(%rax)
  40112b:	eb 54                	jmp    401181 <update_rtt+0x95>
  40112d:	8b 55 f4             	mov    -0xc(%rbp),%edx
  401130:	48 8b 45 f8          	mov    -0x8(%rbp),%rax
  401134:	8b 00                	mov    (%rax),%eax
  401136:	c1 e8 03             	shr    $0x3,%eax
  401139:	29 c2                	sub    %eax,%edx
  40113b:	89 d0                	mov    %edx,%eax
  40113d:	89 45 f4             	mov    %eax,-0xc(%rbp)
  401140:	48 8b 45 f8          	mov    -0x8(%rbp),%rax
  401144:	8b 10                	mov    (%rax),%edx
  401146:	8b 45 f4             	mov    -0xc(%rbp),%eax
  401149:	01 c2                	add    %eax,%edx
  40114b:	48 8b 45 f8          	mov    -0x8(%rbp),%rax
  40114f:	89 10                	mov    %edx,(%rax)
  401151:	83 7d f4 00          	cmpl   $0x0,-0xc(%rbp)
  401155:	79 03                	jns    40115a <update_rtt+0x6e>
  401157:	f7 5d f4             	negl   -0xc(%rbp)
  40115a:	8b 55 f4             	mov    -0xc(%rbp),%edx
  40115d:	48 8b 45 f8          	mov    -0x8(%rbp),%rax
  401161:	8b 40 04             	mov    0x4(%rax),%eax
  401164:	c1 e8 02             	shr    $0x2,%eax
  401167:	29 c2                	sub    %eax,%edx
  401169:	89 d0                	mov    %edx,%eax
  40116b:	89 45 f4             	mov    %eax,-0xc(%rbp)
  40116e:	48 8b 45 f8          	mov    -0x8(%rbp),%rax
  401172:	8b 50 04             	mov    0x4(%rax),%edx
  401175:	8b 45 f4             	mov    -0xc(%rbp),%eax
  401178:	01 c2                	add    %eax,%edx
  40117a:	48 8b 45 f8          	mov    -0x8(%rbp),%rax
  40117e:	89 50 04             	mov    %edx,0x4(%rax)
  401181:	48 8b 45 f8          	mov    -0x8(%rbp),%rax
  401185:	8b 00                	mov    (%rax),%eax
  401187:	c1 e8 03             	shr    $0x3,%eax
  40118a:	89 c1                	mov    %eax,%ecx
  40118c:	48 8b 45 f8          	mov    -0x8(%rbp),%rax
  401190:	8b 40 04             	mov    0x4(%rax),%eax
  401193:	c1 e0 02             	shl    $0x2,%eax
  401196:	ba c8 00 00 00       	mov    $0xc8,%edx
  40119b:	3d c8 00 00 00       	cmp    $0xc8,%eax
  4011a0:	0f 42 c2             	cmovb  %edx,%eax
  4011a3:	8d 14 01             	lea    (%rcx,%rax,1),%edx
  4011a6:	48 8b 45 f8          	mov    -0x8(%rbp),%rax
  4011aa:	89 50 08             	mov    %edx,0x8(%rax)
  4011ad:	5d                   	pop    %rbp
  4011ae:	c3                   	retq   

00000000004011af <rtt_thres>:
  4011af:	55                   	push   %rbp
  4011b0:	48 89 e5             	mov    %rsp,%rbp
  4011b3:	48 89 7d f8          	mov    %rdi,-0x8(%rbp)
  4011b7:	48 8b 45 f8          	mov    -0x8(%rbp),%rax
  4011bb:	8b 00                	mov    (%rax),%eax
  4011bd:	85 c0                	test   %eax,%eax
  4011bf:	75 09                	jne    4011ca <rtt_thres+0x1b>
  4011c1:	48 8b 45 f8          	mov    -0x8(%rbp),%rax
  4011c5:	8b 40 08             	mov    0x8(%rax),%eax
  4011c8:	eb 17                	jmp    4011e1 <rtt_thres+0x32>
  4011ca:	48 8b 45 f8          	mov    -0x8(%rbp),%rax
  4011ce:	8b 40 08             	mov    0x8(%rax),%eax
  4011d1:	48 8b 55 f8          	mov    -0x8(%rbp),%rdx
  4011d5:	8b 12                	mov    (%rdx),%edx
  4011d7:	c1 ea 03             	shr    $0x3,%edx
  4011da:	01 d2                	add    %edx,%edx
  4011dc:	39 d0                	cmp    %edx,%eax
  4011de:	0f 47 c2             	cmova  %edx,%eax
  4011e1:	5d                   	pop    %rbp
  4011e2:	c3                   	retq   

00000000004011e3 <pcap_init>:
  4011e3:	55                   	push   %rbp
  4011e4:	48 89 e5             	mov    %rsp,%rbp
  4011e7:	53                   	push   %rbx
  4011e8:	48 81 ec 38 09 00 00 	sub    $0x938,%rsp
  4011ef:	64 48 8b 04 25 28 00 	mov    %fs:0x28,%rax
  4011f6:	00 00 
  4011f8:	48 89 45 e8          	mov    %rax,-0x18(%rbp)
  4011fc:	31 c0                	xor    %eax,%eax
  4011fe:	8b 05 7c 70 20 00    	mov    0x20707c(%rip),%eax        # 608280 <pcap_type>
  401204:	83 f8 02             	cmp    $0x2,%eax
  401207:	75 5b                	jne    401264 <pcap_init+0x81>
  401209:	48 8d 85 e0 f6 ff ff 	lea    -0x920(%rbp),%rax
  401210:	48 89 c6             	mov    %rax,%rsi
  401213:	bf a0 82 60 00       	mov    $0x6082a0,%edi
  401218:	e8 93 fc ff ff       	callq  400eb0 <pcap_open_offline@plt>
  40121d:	48 89 85 d8 f6 ff ff 	mov    %rax,-0x928(%rbp)
  401224:	48 83 bd d8 f6 ff ff 	cmpq   $0x0,-0x928(%rbp)
  40122b:	00 
  40122c:	0f 85 98 00 00 00    	jne    4012ca <pcap_init+0xe7>
  401232:	48 8b 05 f7 6f 20 00 	mov    0x206ff7(%rip),%rax        # 608230 <stderr@@GLIBC_2.2.5>
  401239:	48 8d 95 e0 f6 ff ff 	lea    -0x920(%rbp),%rdx
  401240:	48 89 d1             	mov    %rdx,%rcx
  401243:	ba 38 59 40 00       	mov    $0x405938,%edx
  401248:	be 40 59 40 00       	mov    $0x405940,%esi
  40124d:	48 89 c7             	mov    %rax,%rdi
  401250:	b8 00 00 00 00       	mov    $0x0,%eax
  401255:	e8 66 fc ff ff       	callq  400ec0 <fprintf@plt>
  40125a:	bf 01 00 00 00       	mov    $0x1,%edi
  40125f:	e8 1c fd ff ff       	callq  400f80 <exit@plt>
  401264:	48 8d 85 e0 f6 ff ff 	lea    -0x920(%rbp),%rax
  40126b:	49 89 c0             	mov    %rax,%r8
  40126e:	b9 ff ff ff ff       	mov    $0xffffffff,%ecx
  401273:	ba 01 00 00 00       	mov    $0x1,%edx
  401278:	be 60 00 00 00       	mov    $0x60,%esi
  40127d:	bf a0 86 60 00       	mov    $0x6086a0,%edi
  401282:	e8 d9 fc ff ff       	callq  400f60 <pcap_open_live@plt>
  401287:	48 89 85 d8 f6 ff ff 	mov    %rax,-0x928(%rbp)
  40128e:	48 83 bd d8 f6 ff ff 	cmpq   $0x0,-0x928(%rbp)
  401295:	00 
  401296:	75 32                	jne    4012ca <pcap_init+0xe7>
  401298:	48 8b 05 91 6f 20 00 	mov    0x206f91(%rip),%rax        # 608230 <stderr@@GLIBC_2.2.5>
  40129f:	48 8d 95 e0 f6 ff ff 	lea    -0x920(%rbp),%rdx
  4012a6:	48 89 d1             	mov    %rdx,%rcx
  4012a9:	ba 38 59 40 00       	mov    $0x405938,%edx
  4012ae:	be 68 59 40 00       	mov    $0x405968,%esi
  4012b3:	48 89 c7             	mov    %rax,%rdi
  4012b6:	b8 00 00 00 00       	mov    $0x0,%eax
  4012bb:	e8 00 fc ff ff       	callq  400ec0 <fprintf@plt>
  4012c0:	bf 01 00 00 00       	mov    $0x1,%edi
  4012c5:	e8 b6 fc ff ff       	callq  400f80 <exit@plt>
  4012ca:	0f b7 05 03 75 20 00 	movzwl 0x207503(%rip),%eax        # 6087d4 <server_port>
  4012d1:	0f b7 d0             	movzwl %ax,%edx
  4012d4:	0f b7 05 f9 74 20 00 	movzwl 0x2074f9(%rip),%eax        # 6087d4 <server_port>
  4012db:	0f b7 c8             	movzwl %ax,%ecx
  4012de:	48 8d 85 e0 f7 ff ff 	lea    -0x820(%rbp),%rax
  4012e5:	89 14 24             	mov    %edx,(%rsp)
  4012e8:	41 b9 40 87 60 00    	mov    $0x608740,%r9d
  4012ee:	41 89 c8             	mov    %ecx,%r8d
  4012f1:	b9 40 87 60 00       	mov    $0x608740,%ecx
  4012f6:	ba 90 59 40 00       	mov    $0x405990,%edx
  4012fb:	be 00 08 00 00       	mov    $0x800,%esi
  401300:	48 89 c7             	mov    %rax,%rdi
  401303:	b8 00 00 00 00       	mov    $0x0,%eax
  401308:	e8 f3 fa ff ff       	callq  400e00 <snprintf@plt>
  40130d:	48 8d 95 e0 f7 ff ff 	lea    -0x820(%rbp),%rdx
  401314:	48 8b 85 d8 f6 ff ff 	mov    -0x928(%rbp),%rax
  40131b:	41 b8 00 00 00 00    	mov    $0x0,%r8d
  401321:	b9 00 00 00 00       	mov    $0x0,%ecx
  401326:	be 50 82 60 00       	mov    $0x608250,%esi
  40132b:	48 89 c7             	mov    %rax,%rdi
  40132e:	e8 ed fb ff ff       	callq  400f20 <pcap_compile@plt>
  401333:	83 f8 ff             	cmp    $0xffffffff,%eax
  401336:	75 47                	jne    40137f <pcap_init+0x19c>
  401338:	48 8b 85 d8 f6 ff ff 	mov    -0x928(%rbp),%rax
  40133f:	48 89 c7             	mov    %rax,%rdi
  401342:	e8 49 fb ff ff       	callq  400e90 <pcap_geterr@plt>
  401347:	48 89 c1             	mov    %rax,%rcx
  40134a:	48 8b 05 df 6e 20 00 	mov    0x206edf(%rip),%rax        # 608230 <stderr@@GLIBC_2.2.5>
  401351:	48 8d 95 e0 f7 ff ff 	lea    -0x820(%rbp),%rdx
  401358:	49 89 c8             	mov    %rcx,%r8
  40135b:	48 89 d1             	mov    %rdx,%rcx
  40135e:	ba 38 59 40 00       	mov    $0x405938,%edx
  401363:	be d8 59 40 00       	mov    $0x4059d8,%esi
  401368:	48 89 c7             	mov    %rax,%rdi
  40136b:	b8 00 00 00 00       	mov    $0x0,%eax
  401370:	e8 4b fb ff ff       	callq  400ec0 <fprintf@plt>
  401375:	bf 01 00 00 00       	mov    $0x1,%edi
  40137a:	e8 01 fc ff ff       	callq  400f80 <exit@plt>
  40137f:	48 8b 85 d8 f6 ff ff 	mov    -0x928(%rbp),%rax
  401386:	be 50 82 60 00       	mov    $0x608250,%esi
  40138b:	48 89 c7             	mov    %rax,%rdi
  40138e:	e8 2d fa ff ff       	callq  400dc0 <pcap_setfilter@plt>
  401393:	83 f8 ff             	cmp    $0xffffffff,%eax
  401396:	75 47                	jne    4013df <pcap_init+0x1fc>
  401398:	48 8b 85 d8 f6 ff ff 	mov    -0x928(%rbp),%rax
  40139f:	48 89 c7             	mov    %rax,%rdi
  4013a2:	e8 e9 fa ff ff       	callq  400e90 <pcap_geterr@plt>
  4013a7:	48 89 c1             	mov    %rax,%rcx
  4013aa:	48 8b 05 7f 6e 20 00 	mov    0x206e7f(%rip),%rax        # 608230 <stderr@@GLIBC_2.2.5>
  4013b1:	48 8d 95 e0 f7 ff ff 	lea    -0x820(%rbp),%rdx
  4013b8:	49 89 c8             	mov    %rcx,%r8
  4013bb:	48 89 d1             	mov    %rdx,%rcx
  4013be:	ba 38 59 40 00       	mov    $0x405938,%edx
  4013c3:	be 00 5a 40 00       	mov    $0x405a00,%esi
  4013c8:	48 89 c7             	mov    %rax,%rdi
  4013cb:	b8 00 00 00 00       	mov    $0x0,%eax
  4013d0:	e8 eb fa ff ff       	callq  400ec0 <fprintf@plt>
  4013d5:	bf 01 00 00 00       	mov    $0x1,%edi
  4013da:	e8 a1 fb ff ff       	callq  400f80 <exit@plt>
  4013df:	48 8b 85 d8 f6 ff ff 	mov    -0x928(%rbp),%rax
  4013e6:	48 89 c7             	mov    %rax,%rdi
  4013e9:	e8 b2 fb ff ff       	callq  400fa0 <pcap_datalink@plt>
  4013ee:	89 85 d4 f6 ff ff    	mov    %eax,-0x92c(%rbp)
  4013f4:	8b 85 d4 f6 ff ff    	mov    -0x92c(%rbp),%eax
  4013fa:	83 f8 01             	cmp    $0x1,%eax
  4013fd:	74 07                	je     401406 <pcap_init+0x223>
  4013ff:	83 f8 71             	cmp    $0x71,%eax
  401402:	74 0e                	je     401412 <pcap_init+0x22f>
  401404:	eb 18                	jmp    40141e <pcap_init+0x23b>
  401406:	c7 05 30 6e 20 00 0c 	movl   $0xc,0x206e30(%rip)        # 608240 <offset>
  40140d:	00 00 00 
  401410:	eb 3c                	jmp    40144e <pcap_init+0x26b>
  401412:	c7 05 24 6e 20 00 0e 	movl   $0xe,0x206e24(%rip)        # 608240 <offset>
  401419:	00 00 00 
  40141c:	eb 30                	jmp    40144e <pcap_init+0x26b>
  40141e:	48 8b 05 0b 6e 20 00 	mov    0x206e0b(%rip),%rax        # 608230 <stderr@@GLIBC_2.2.5>
  401425:	8b 95 d4 f6 ff ff    	mov    -0x92c(%rbp),%edx
  40142b:	89 d1                	mov    %edx,%ecx
  40142d:	ba 24 5a 40 00       	mov    $0x405a24,%edx
  401432:	be 29 5a 40 00       	mov    $0x405a29,%esi
  401437:	48 89 c7             	mov    %rax,%rdi
  40143a:	b8 00 00 00 00       	mov    $0x0,%eax
  40143f:	e8 7c fa ff ff       	callq  400ec0 <fprintf@plt>
  401444:	bf 01 00 00 00       	mov    $0x1,%edi
  401449:	e8 32 fb ff ff       	callq  400f80 <exit@plt>
  40144e:	48 8b 85 d8 f6 ff ff 	mov    -0x928(%rbp),%rax
  401455:	48 8b 5d e8          	mov    -0x18(%rbp),%rbx
  401459:	64 48 33 1c 25 28 00 	xor    %fs:0x28,%rbx
  401460:	00 00 
  401462:	74 05                	je     401469 <pcap_init+0x286>
  401464:	e8 87 f9 ff ff       	callq  400df0 <__stack_chk_fail@plt>
  401469:	48 81 c4 38 09 00 00 	add    $0x938,%rsp
  401470:	5b                   	pop    %rbx
  401471:	5d                   	pop    %rbp
  401472:	c3                   	retq   

0000000000401473 <get_ip_hdr>:
  401473:	55                   	push   %rbp
  401474:	48 89 e5             	mov    %rsp,%rbp
  401477:	48 83 ec 20          	sub    $0x20,%rsp
  40147b:	48 89 7d e8          	mov    %rdi,-0x18(%rbp)
  40147f:	48 89 75 e0          	mov    %rsi,-0x20(%rbp)
  401483:	8b 05 b7 6d 20 00    	mov    0x206db7(%rip),%eax        # 608240 <offset>
  401489:	48 63 d0             	movslq %eax,%rdx
  40148c:	48 8b 45 e8          	mov    -0x18(%rbp),%rax
  401490:	48 01 d0             	add    %rdx,%rax
  401493:	0f b7 00             	movzwl (%rax),%eax
  401496:	0f b7 c0             	movzwl %ax,%eax
  401499:	89 c7                	mov    %eax,%edi
  40149b:	e8 a0 fa ff ff       	callq  400f40 <ntohs@plt>
  4014a0:	0f b7 c0             	movzwl %ax,%eax
  4014a3:	89 45 f0             	mov    %eax,-0x10(%rbp)
  4014a6:	81 7d f0 00 08 00 00 	cmpl   $0x800,-0x10(%rbp)
  4014ad:	75 57                	jne    401506 <get_ip_hdr+0x93>
  4014af:	8b 05 8b 6d 20 00    	mov    0x206d8b(%rip),%eax        # 608240 <offset>
  4014b5:	48 98                	cltq   
  4014b7:	48 83 c0 02          	add    $0x2,%rax
  4014bb:	48 01 45 e8          	add    %rax,-0x18(%rbp)
  4014bf:	48 8b 45 e8          	mov    -0x18(%rbp),%rax
  4014c3:	48 89 45 f8          	mov    %rax,-0x8(%rbp)
  4014c7:	48 8b 45 f8          	mov    -0x8(%rbp),%rax
  4014cb:	0f b6 00             	movzbl (%rax),%eax
  4014ce:	83 e0 0f             	and    $0xf,%eax
  4014d1:	0f b6 c0             	movzbl %al,%eax
  4014d4:	c1 e0 02             	shl    $0x2,%eax
  4014d7:	89 45 f4             	mov    %eax,-0xc(%rbp)
  4014da:	48 8b 45 e0          	mov    -0x20(%rbp),%rax
  4014de:	8b 10                	mov    (%rax),%edx
  4014e0:	8b 05 5a 6d 20 00    	mov    0x206d5a(%rip),%eax        # 608240 <offset>
  4014e6:	b9 fe ff ff ff       	mov    $0xfffffffe,%ecx
  4014eb:	29 c1                	sub    %eax,%ecx
  4014ed:	89 c8                	mov    %ecx,%eax
  4014ef:	2b 45 f4             	sub    -0xc(%rbp),%eax
  4014f2:	01 c2                	add    %eax,%edx
  4014f4:	48 8b 45 e0          	mov    -0x20(%rbp),%rax
  4014f8:	89 10                	mov    %edx,(%rax)
  4014fa:	48 8b 45 e0          	mov    -0x20(%rbp),%rax
  4014fe:	8b 00                	mov    (%rax),%eax
  401500:	85 c0                	test   %eax,%eax
  401502:	79 33                	jns    401537 <get_ip_hdr+0xc4>
  401504:	eb 2a                	jmp    401530 <get_ip_hdr+0xbd>
  401506:	48 8b 05 23 6d 20 00 	mov    0x206d23(%rip),%rax        # 608230 <stderr@@GLIBC_2.2.5>
  40150d:	8b 55 f0             	mov    -0x10(%rbp),%edx
  401510:	89 d1                	mov    %edx,%ecx
  401512:	ba 46 5a 40 00       	mov    $0x405a46,%edx
  401517:	be 50 5a 40 00       	mov    $0x405a50,%esi
  40151c:	48 89 c7             	mov    %rax,%rdi
  40151f:	b8 00 00 00 00       	mov    $0x0,%eax
  401524:	e8 97 f9 ff ff       	callq  400ec0 <fprintf@plt>
  401529:	b8 00 00 00 00       	mov    $0x0,%eax
  40152e:	eb 0b                	jmp    40153b <get_ip_hdr+0xc8>
  401530:	b8 00 00 00 00       	mov    $0x0,%eax
  401535:	eb 04                	jmp    40153b <get_ip_hdr+0xc8>
  401537:	48 8b 45 f8          	mov    -0x8(%rbp),%rax
  40153b:	c9                   	leaveq 
  40153c:	c3                   	retq   

000000000040153d <pcap_cleanup>:
  40153d:	55                   	push   %rbp
  40153e:	48 89 e5             	mov    %rsp,%rbp
  401541:	48 83 ec 10          	sub    $0x10,%rsp
  401545:	48 89 7d f8          	mov    %rdi,-0x8(%rbp)
  401549:	bf 50 82 60 00       	mov    $0x608250,%edi
  40154e:	e8 dd f9 ff ff       	callq  400f30 <pcap_freecode@plt>
  401553:	48 8b 45 f8          	mov    -0x8(%rbp),%rax
  401557:	48 89 c7             	mov    %rax,%rdi
  40155a:	e8 b1 f8 ff ff       	callq  400e10 <pcap_close@plt>
  40155f:	c9                   	leaveq 
  401560:	c3                   	retq   

0000000000401561 <parse_stall>:
  401561:	55                   	push   %rbp
  401562:	48 89 e5             	mov    %rsp,%rbp
  401565:	48 89 7d f8          	mov    %rdi,-0x8(%rbp)
  401569:	48 8b 45 f8          	mov    -0x8(%rbp),%rax
  40156d:	8b 50 64             	mov    0x64(%rax),%edx
  401570:	48 8b 45 f8          	mov    -0x8(%rbp),%rax
  401574:	8b 40 58             	mov    0x58(%rax),%eax
  401577:	01 d0                	add    %edx,%eax
  401579:	85 c0                	test   %eax,%eax
  40157b:	0f 8e dc 00 00 00    	jle    40165d <parse_stall+0xfc>
  401581:	48 8b 45 f8          	mov    -0x8(%rbp),%rax
  401585:	8b 40 64             	mov    0x64(%rax),%eax
  401588:	85 c0                	test   %eax,%eax
  40158a:	0f 8e 88 00 00 00    	jle    401618 <parse_stall+0xb7>
  401590:	48 8b 45 f8          	mov    -0x8(%rbp),%rax
  401594:	8b 50 58             	mov    0x58(%rax),%edx
  401597:	48 8b 45 f8          	mov    -0x8(%rbp),%rax
  40159b:	8b 40 64             	mov    0x64(%rax),%eax
  40159e:	01 d0                	add    %edx,%eax
  4015a0:	83 f8 02             	cmp    $0x2,%eax
  4015a3:	7e 0a                	jle    4015af <parse_stall+0x4e>
  4015a5:	b8 01 00 00 00       	mov    $0x1,%eax
  4015aa:	e9 05 01 00 00       	jmpq   4016b4 <parse_stall+0x153>
  4015af:	48 8b 45 f8          	mov    -0x8(%rbp),%rax
  4015b3:	8b 40 54             	mov    0x54(%rax),%eax
  4015b6:	83 f8 03             	cmp    $0x3,%eax
  4015b9:	7e 53                	jle    40160e <parse_stall+0xad>
  4015bb:	48 8b 45 f8          	mov    -0x8(%rbp),%rax
  4015bf:	f2 0f 10 48 18       	movsd  0x18(%rax),%xmm1
  4015c4:	48 8b 45 f8          	mov    -0x8(%rbp),%rax
  4015c8:	f2 0f 10 40 10       	movsd  0x10(%rax),%xmm0
  4015cd:	f2 0f 58 c1          	addsd  %xmm1,%xmm0
  4015d1:	48 8b 45 f8          	mov    -0x8(%rbp),%rax
  4015d5:	f2 0f 10 48 38       	movsd  0x38(%rax),%xmm1
  4015da:	f2 0f 5c c1          	subsd  %xmm1,%xmm0
  4015de:	48 8b 45 f8          	mov    -0x8(%rbp),%rax
  4015e2:	f2 0f 10 50 28       	movsd  0x28(%rax),%xmm2
  4015e7:	48 8b 45 f8          	mov    -0x8(%rbp),%rax
  4015eb:	f2 0f 10 48 20       	movsd  0x20(%rax),%xmm1
  4015f0:	f2 0f 58 ca          	addsd  %xmm2,%xmm1
  4015f4:	66 0f 2e c1          	ucomisd %xmm1,%xmm0
  4015f8:	76 0a                	jbe    401604 <parse_stall+0xa3>
  4015fa:	b8 01 00 00 00       	mov    $0x1,%eax
  4015ff:	e9 b0 00 00 00       	jmpq   4016b4 <parse_stall+0x153>
  401604:	b8 00 00 00 00       	mov    $0x0,%eax
  401609:	e9 a6 00 00 00       	jmpq   4016b4 <parse_stall+0x153>
  40160e:	b8 02 00 00 00       	mov    $0x2,%eax
  401613:	e9 9c 00 00 00       	jmpq   4016b4 <parse_stall+0x153>
  401618:	48 8b 45 f8          	mov    -0x8(%rbp),%rax
  40161c:	8b 40 6c             	mov    0x6c(%rax),%eax
  40161f:	85 c0                	test   %eax,%eax
  401621:	7e 33                	jle    401656 <parse_stall+0xf5>
  401623:	48 8b 45 f8          	mov    -0x8(%rbp),%rax
  401627:	f2 0f 10 48 30       	movsd  0x30(%rax),%xmm1
  40162c:	48 8b 45 f8          	mov    -0x8(%rbp),%rax
  401630:	f2 0f 10 40 28       	movsd  0x28(%rax),%xmm0
  401635:	48 8b 45 f8          	mov    -0x8(%rbp),%rax
  401639:	f2 0f 10 50 20       	movsd  0x20(%rax),%xmm2
  40163e:	f2 0f 5c c2          	subsd  %xmm2,%xmm0
  401642:	66 0f 2e c8          	ucomisd %xmm0,%xmm1
  401646:	76 07                	jbe    40164f <parse_stall+0xee>
  401648:	b8 04 00 00 00       	mov    $0x4,%eax
  40164d:	eb 65                	jmp    4016b4 <parse_stall+0x153>
  40164f:	b8 05 00 00 00       	mov    $0x5,%eax
  401654:	eb 5e                	jmp    4016b4 <parse_stall+0x153>
  401656:	b8 00 00 00 00       	mov    $0x0,%eax
  40165b:	eb 57                	jmp    4016b4 <parse_stall+0x153>
  40165d:	48 8b 45 f8          	mov    -0x8(%rbp),%rax
  401661:	8b 40 70             	mov    0x70(%rax),%eax
  401664:	83 f8 01             	cmp    $0x1,%eax
  401667:	75 33                	jne    40169c <parse_stall+0x13b>
  401669:	48 8b 45 f8          	mov    -0x8(%rbp),%rax
  40166d:	f2 0f 10 48 18       	movsd  0x18(%rax),%xmm1
  401672:	48 8b 45 f8          	mov    -0x8(%rbp),%rax
  401676:	f2 0f 10 50 28       	movsd  0x28(%rax),%xmm2
  40167b:	48 8b 45 f8          	mov    -0x8(%rbp),%rax
  40167f:	f2 0f 10 40 20       	movsd  0x20(%rax),%xmm0
  401684:	f2 0f 58 c2          	addsd  %xmm2,%xmm0
  401688:	66 0f 2e c8          	ucomisd %xmm0,%xmm1
  40168c:	76 07                	jbe    401695 <parse_stall+0x134>
  40168e:	b8 03 00 00 00       	mov    $0x3,%eax
  401693:	eb 1f                	jmp    4016b4 <parse_stall+0x153>
  401695:	b8 06 00 00 00       	mov    $0x6,%eax
  40169a:	eb 18                	jmp    4016b4 <parse_stall+0x153>
  40169c:	48 8b 45 f8          	mov    -0x8(%rbp),%rax
  4016a0:	8b 40 08             	mov    0x8(%rax),%eax
  4016a3:	83 f8 01             	cmp    $0x1,%eax
  4016a6:	75 07                	jne    4016af <parse_stall+0x14e>
  4016a8:	b8 04 00 00 00       	mov    $0x4,%eax
  4016ad:	eb 05                	jmp    4016b4 <parse_stall+0x153>
  4016af:	b8 07 00 00 00       	mov    $0x7,%eax
  4016b4:	5d                   	pop    %rbp
  4016b5:	c3                   	retq   

00000000004016b6 <before>:
  4016b6:	55                   	push   %rbp
  4016b7:	48 89 e5             	mov    %rsp,%rbp
  4016ba:	89 7d fc             	mov    %edi,-0x4(%rbp)
  4016bd:	89 75 f8             	mov    %esi,-0x8(%rbp)
  4016c0:	8b 45 f8             	mov    -0x8(%rbp),%eax
  4016c3:	8b 55 fc             	mov    -0x4(%rbp),%edx
  4016c6:	29 c2                	sub    %eax,%edx
  4016c8:	89 d0                	mov    %edx,%eax
  4016ca:	c1 e8 1f             	shr    $0x1f,%eax
  4016cd:	0f b6 c0             	movzbl %al,%eax
  4016d0:	5d                   	pop    %rbp
  4016d1:	c3                   	retq   

00000000004016d2 <list_insert>:
  4016d2:	55                   	push   %rbp
  4016d3:	48 89 e5             	mov    %rsp,%rbp
  4016d6:	48 89 7d f8          	mov    %rdi,-0x8(%rbp)
  4016da:	48 89 75 f0          	mov    %rsi,-0x10(%rbp)
  4016de:	48 89 55 e8          	mov    %rdx,-0x18(%rbp)
  4016e2:	48 8b 45 e8          	mov    -0x18(%rbp),%rax
  4016e6:	48 8b 55 f8          	mov    -0x8(%rbp),%rdx
  4016ea:	48 89 50 08          	mov    %rdx,0x8(%rax)
  4016ee:	48 8b 45 f0          	mov    -0x10(%rbp),%rax
  4016f2:	48 8b 55 f8          	mov    -0x8(%rbp),%rdx
  4016f6:	48 89 10             	mov    %rdx,(%rax)
  4016f9:	48 8b 45 f8          	mov    -0x8(%rbp),%rax
  4016fd:	48 8b 55 e8          	mov    -0x18(%rbp),%rdx
  401701:	48 89 10             	mov    %rdx,(%rax)
  401704:	48 8b 45 f8          	mov    -0x8(%rbp),%rax
  401708:	48 8b 55 f0          	mov    -0x10(%rbp),%rdx
  40170c:	48 89 50 08          	mov    %rdx,0x8(%rax)
  401710:	5d                   	pop    %rbp
  401711:	c3                   	retq   

0000000000401712 <spurious_retrans>:
  401712:	55                   	push   %rbp
  401713:	48 89 e5             	mov    %rsp,%rbp
  401716:	48 83 ec 20          	sub    $0x20,%rsp
  40171a:	89 7d fc             	mov    %edi,-0x4(%rbp)
  40171d:	48 89 75 f0          	mov    %rsi,-0x10(%rbp)
  401721:	48 89 55 e8          	mov    %rdx,-0x18(%rbp)
  401725:	48 89 4d e0          	mov    %rcx,-0x20(%rbp)
  401729:	48 8b 45 f0          	mov    -0x10(%rbp),%rax
  40172d:	8b 40 20             	mov    0x20(%rax),%eax
  401730:	85 c0                	test   %eax,%eax
  401732:	75 0a                	jne    40173e <spurious_retrans+0x2c>
  401734:	b8 00 00 00 00       	mov    $0x0,%eax
  401739:	e9 ce 00 00 00       	jmpq   40180c <spurious_retrans+0xfa>
  40173e:	48 8b 45 f0          	mov    -0x10(%rbp),%rax
  401742:	8b 00                	mov    (%rax),%eax
  401744:	8b 55 fc             	mov    -0x4(%rbp),%edx
  401747:	89 d6                	mov    %edx,%esi
  401749:	89 c7                	mov    %eax,%edi
  40174b:	e8 66 ff ff ff       	callq  4016b6 <before>
  401750:	85 c0                	test   %eax,%eax
  401752:	74 47                	je     40179b <spurious_retrans+0x89>
  401754:	48 8b 45 f0          	mov    -0x10(%rbp),%rax
  401758:	8b 10                	mov    (%rax),%edx
  40175a:	48 8b 45 e8          	mov    -0x18(%rbp),%rax
  40175e:	89 10                	mov    %edx,(%rax)
  401760:	48 8b 45 f0          	mov    -0x10(%rbp),%rax
  401764:	8b 40 04             	mov    0x4(%rax),%eax
  401767:	8b 55 fc             	mov    -0x4(%rbp),%edx
  40176a:	89 d6                	mov    %edx,%esi
  40176c:	89 c7                	mov    %eax,%edi
  40176e:	e8 43 ff ff ff       	callq  4016b6 <before>
  401773:	85 c0                	test   %eax,%eax
  401775:	74 09                	je     401780 <spurious_retrans+0x6e>
  401777:	48 8b 45 f0          	mov    -0x10(%rbp),%rax
  40177b:	8b 40 04             	mov    0x4(%rax),%eax
  40177e:	eb 03                	jmp    401783 <spurious_retrans+0x71>
  401780:	8b 45 fc             	mov    -0x4(%rbp),%eax
  401783:	48 8b 55 e0          	mov    -0x20(%rbp),%rdx
  401787:	89 02                	mov    %eax,(%rdx)
  401789:	48 8b 45 e0          	mov    -0x20(%rbp),%rax
  40178d:	8b 10                	mov    (%rax),%edx
  40178f:	48 8b 45 e8          	mov    -0x18(%rbp),%rax
  401793:	8b 00                	mov    (%rax),%eax
  401795:	29 c2                	sub    %eax,%edx
  401797:	89 d0                	mov    %edx,%eax
  401799:	eb 71                	jmp    40180c <spurious_retrans+0xfa>
  40179b:	48 8b 45 f0          	mov    -0x10(%rbp),%rax
  40179f:	8b 40 20             	mov    0x20(%rax),%eax
  4017a2:	83 f8 01             	cmp    $0x1,%eax
  4017a5:	7e 60                	jle    401807 <spurious_retrans+0xf5>
  4017a7:	48 8b 45 f0          	mov    -0x10(%rbp),%rax
  4017ab:	8b 50 08             	mov    0x8(%rax),%edx
  4017ae:	48 8b 45 f0          	mov    -0x10(%rbp),%rax
  4017b2:	8b 00                	mov    (%rax),%eax
  4017b4:	89 d6                	mov    %edx,%esi
  4017b6:	89 c7                	mov    %eax,%edi
  4017b8:	e8 f9 fe ff ff       	callq  4016b6 <before>
  4017bd:	85 c0                	test   %eax,%eax
  4017bf:	75 46                	jne    401807 <spurious_retrans+0xf5>
  4017c1:	48 8b 45 f0          	mov    -0x10(%rbp),%rax
  4017c5:	8b 50 04             	mov    0x4(%rax),%edx
  4017c8:	48 8b 45 f0          	mov    -0x10(%rbp),%rax
  4017cc:	8b 40 0c             	mov    0xc(%rax),%eax
  4017cf:	89 d6                	mov    %edx,%esi
  4017d1:	89 c7                	mov    %eax,%edi
  4017d3:	e8 de fe ff ff       	callq  4016b6 <before>
  4017d8:	85 c0                	test   %eax,%eax
  4017da:	75 2b                	jne    401807 <spurious_retrans+0xf5>
  4017dc:	48 8b 45 f0          	mov    -0x10(%rbp),%rax
  4017e0:	8b 10                	mov    (%rax),%edx
  4017e2:	48 8b 45 e8          	mov    -0x18(%rbp),%rax
  4017e6:	89 10                	mov    %edx,(%rax)
  4017e8:	48 8b 45 f0          	mov    -0x10(%rbp),%rax
  4017ec:	8b 50 04             	mov    0x4(%rax),%edx
  4017ef:	48 8b 45 e0          	mov    -0x20(%rbp),%rax
  4017f3:	89 10                	mov    %edx,(%rax)
  4017f5:	48 8b 45 e0          	mov    -0x20(%rbp),%rax
  4017f9:	8b 10                	mov    (%rax),%edx
  4017fb:	48 8b 45 e8          	mov    -0x18(%rbp),%rax
  4017ff:	8b 00                	mov    (%rax),%eax
  401801:	29 c2                	sub    %eax,%edx
  401803:	89 d0                	mov    %edx,%eax
  401805:	eb 05                	jmp    40180c <spurious_retrans+0xfa>
  401807:	b8 00 00 00 00       	mov    $0x0,%eax
  40180c:	c9                   	leaveq 
  40180d:	c3                   	retq   

000000000040180e <sacked>:
  40180e:	55                   	push   %rbp
  40180f:	48 89 e5             	mov    %rsp,%rbp
  401812:	48 83 ec 20          	sub    $0x20,%rsp
  401816:	89 7d ec             	mov    %edi,-0x14(%rbp)
  401819:	48 89 75 e0          	mov    %rsi,-0x20(%rbp)
  40181d:	48 8b 45 e0          	mov    -0x20(%rbp),%rax
  401821:	8b 40 20             	mov    0x20(%rax),%eax
  401824:	85 c0                	test   %eax,%eax
  401826:	75 07                	jne    40182f <sacked+0x21>
  401828:	b8 00 00 00 00       	mov    $0x0,%eax
  40182d:	eb 5f                	jmp    40188e <sacked+0x80>
  40182f:	c7 45 f8 00 00 00 00 	movl   $0x0,-0x8(%rbp)
  401836:	c7 45 fc 00 00 00 00 	movl   $0x0,-0x4(%rbp)
  40183d:	eb 26                	jmp    401865 <sacked+0x57>
  40183f:	48 8b 45 e0          	mov    -0x20(%rbp),%rax
  401843:	8b 55 f8             	mov    -0x8(%rbp),%edx
  401846:	48 63 d2             	movslq %edx,%rdx
  401849:	8b 4c d0 04          	mov    0x4(%rax,%rdx,8),%ecx
  40184d:	48 8b 45 e0          	mov    -0x20(%rbp),%rax
  401851:	8b 55 f8             	mov    -0x8(%rbp),%edx
  401854:	48 63 d2             	movslq %edx,%rdx
  401857:	8b 04 d0             	mov    (%rax,%rdx,8),%eax
  40185a:	29 c1                	sub    %eax,%ecx
  40185c:	89 c8                	mov    %ecx,%eax
  40185e:	01 45 fc             	add    %eax,-0x4(%rbp)
  401861:	83 45 f8 01          	addl   $0x1,-0x8(%rbp)
  401865:	48 8b 45 e0          	mov    -0x20(%rbp),%rax
  401869:	8b 40 20             	mov    0x20(%rax),%eax
  40186c:	3b 45 f8             	cmp    -0x8(%rbp),%eax
  40186f:	7f ce                	jg     40183f <sacked+0x31>
  401871:	48 8d 4d f4          	lea    -0xc(%rbp),%rcx
  401875:	48 8d 55 f0          	lea    -0x10(%rbp),%rdx
  401879:	48 8b 75 e0          	mov    -0x20(%rbp),%rsi
  40187d:	8b 45 ec             	mov    -0x14(%rbp),%eax
  401880:	89 c7                	mov    %eax,%edi
  401882:	e8 8b fe ff ff       	callq  401712 <spurious_retrans>
  401887:	8b 55 fc             	mov    -0x4(%rbp),%edx
  40188a:	29 c2                	sub    %eax,%edx
  40188c:	89 d0                	mov    %edx,%eax
  40188e:	c9                   	leaveq 
  40188f:	c3                   	retq   

0000000000401890 <max_sack_ack>:
  401890:	55                   	push   %rbp
  401891:	48 89 e5             	mov    %rsp,%rbp
  401894:	48 83 ec 18          	sub    $0x18,%rsp
  401898:	48 89 7d e8          	mov    %rdi,-0x18(%rbp)
  40189c:	48 8b 45 e8          	mov    -0x18(%rbp),%rax
  4018a0:	8b 40 04             	mov    0x4(%rax),%eax
  4018a3:	89 45 f8             	mov    %eax,-0x8(%rbp)
  4018a6:	c7 45 fc 01 00 00 00 	movl   $0x1,-0x4(%rbp)
  4018ad:	eb 33                	jmp    4018e2 <max_sack_ack+0x52>
  4018af:	48 8b 45 e8          	mov    -0x18(%rbp),%rax
  4018b3:	8b 55 fc             	mov    -0x4(%rbp),%edx
  4018b6:	48 63 d2             	movslq %edx,%rdx
  4018b9:	8b 54 d0 04          	mov    0x4(%rax,%rdx,8),%edx
  4018bd:	8b 45 f8             	mov    -0x8(%rbp),%eax
  4018c0:	89 d6                	mov    %edx,%esi
  4018c2:	89 c7                	mov    %eax,%edi
  4018c4:	e8 ed fd ff ff       	callq  4016b6 <before>
  4018c9:	85 c0                	test   %eax,%eax
  4018cb:	74 11                	je     4018de <max_sack_ack+0x4e>
  4018cd:	48 8b 45 e8          	mov    -0x18(%rbp),%rax
  4018d1:	8b 55 fc             	mov    -0x4(%rbp),%edx
  4018d4:	48 63 d2             	movslq %edx,%rdx
  4018d7:	8b 44 d0 04          	mov    0x4(%rax,%rdx,8),%eax
  4018db:	89 45 f8             	mov    %eax,-0x8(%rbp)
  4018de:	83 45 fc 01          	addl   $0x1,-0x4(%rbp)
  4018e2:	48 8b 45 e8          	mov    -0x18(%rbp),%rax
  4018e6:	8b 40 20             	mov    0x20(%rax),%eax
  4018e9:	3b 45 fc             	cmp    -0x4(%rbp),%eax
  4018ec:	7f c1                	jg     4018af <max_sack_ack+0x1f>
  4018ee:	8b 45 f8             	mov    -0x8(%rbp),%eax
  4018f1:	c9                   	leaveq 
  4018f2:	c3                   	retq   

00000000004018f3 <normalize>:
  4018f3:	55                   	push   %rbp
  4018f4:	48 89 e5             	mov    %rsp,%rbp
  4018f7:	48 83 ec 28          	sub    $0x28,%rsp
  4018fb:	48 89 7d d8          	mov    %rdi,-0x28(%rbp)
  4018ff:	48 8b 45 d8          	mov    -0x28(%rbp),%rax
  401903:	8b 40 20             	mov    0x20(%rax),%eax
  401906:	89 45 ec             	mov    %eax,-0x14(%rbp)
  401909:	83 7d ec 00          	cmpl   $0x0,-0x14(%rbp)
  40190d:	75 05                	jne    401914 <normalize+0x21>
  40190f:	e9 4e 01 00 00       	jmpq   401a62 <normalize+0x16f>
  401914:	8b 45 ec             	mov    -0x14(%rbp),%eax
  401917:	83 e8 01             	sub    $0x1,%eax
  40191a:	89 45 e0             	mov    %eax,-0x20(%rbp)
  40191d:	e9 89 00 00 00       	jmpq   4019ab <normalize+0xb8>
  401922:	c7 45 e4 00 00 00 00 	movl   $0x0,-0x1c(%rbp)
  401929:	eb 74                	jmp    40199f <normalize+0xac>
  40192b:	48 8b 45 d8          	mov    -0x28(%rbp),%rax
  40192f:	8b 55 e4             	mov    -0x1c(%rbp),%edx
  401932:	48 63 d2             	movslq %edx,%rdx
  401935:	8b 14 d0             	mov    (%rax,%rdx,8),%edx
  401938:	8b 45 e4             	mov    -0x1c(%rbp),%eax
  40193b:	8d 48 01             	lea    0x1(%rax),%ecx
  40193e:	48 8b 45 d8          	mov    -0x28(%rbp),%rax
  401942:	48 63 c9             	movslq %ecx,%rcx
  401945:	8b 04 c8             	mov    (%rax,%rcx,8),%eax
  401948:	89 d6                	mov    %edx,%esi
  40194a:	89 c7                	mov    %eax,%edi
  40194c:	e8 65 fd ff ff       	callq  4016b6 <before>
  401951:	85 c0                	test   %eax,%eax
  401953:	74 46                	je     40199b <normalize+0xa8>
  401955:	48 8b 45 d8          	mov    -0x28(%rbp),%rax
  401959:	8b 55 e4             	mov    -0x1c(%rbp),%edx
  40195c:	48 63 d2             	movslq %edx,%rdx
  40195f:	48 8b 04 d0          	mov    (%rax,%rdx,8),%rax
  401963:	48 89 45 f0          	mov    %rax,-0x10(%rbp)
  401967:	8b 45 e4             	mov    -0x1c(%rbp),%eax
  40196a:	8d 70 01             	lea    0x1(%rax),%esi
  40196d:	48 8b 45 d8          	mov    -0x28(%rbp),%rax
  401971:	8b 55 e4             	mov    -0x1c(%rbp),%edx
  401974:	48 63 d2             	movslq %edx,%rdx
  401977:	48 8b 4d d8          	mov    -0x28(%rbp),%rcx
  40197b:	48 63 f6             	movslq %esi,%rsi
  40197e:	48 8b 0c f1          	mov    (%rcx,%rsi,8),%rcx
  401982:	48 89 0c d0          	mov    %rcx,(%rax,%rdx,8)
  401986:	8b 45 e4             	mov    -0x1c(%rbp),%eax
  401989:	8d 50 01             	lea    0x1(%rax),%edx
  40198c:	48 8b 45 d8          	mov    -0x28(%rbp),%rax
  401990:	48 63 d2             	movslq %edx,%rdx
  401993:	48 8b 4d f0          	mov    -0x10(%rbp),%rcx
  401997:	48 89 0c d0          	mov    %rcx,(%rax,%rdx,8)
  40199b:	83 45 e4 01          	addl   $0x1,-0x1c(%rbp)
  40199f:	8b 45 e4             	mov    -0x1c(%rbp),%eax
  4019a2:	3b 45 e0             	cmp    -0x20(%rbp),%eax
  4019a5:	7c 84                	jl     40192b <normalize+0x38>
  4019a7:	83 6d e0 01          	subl   $0x1,-0x20(%rbp)
  4019ab:	83 7d e0 00          	cmpl   $0x0,-0x20(%rbp)
  4019af:	0f 8f 6d ff ff ff    	jg     401922 <normalize+0x2f>
  4019b5:	8b 45 ec             	mov    -0x14(%rbp),%eax
  4019b8:	89 45 e8             	mov    %eax,-0x18(%rbp)
  4019bb:	c7 45 e0 00 00 00 00 	movl   $0x0,-0x20(%rbp)
  4019c2:	c7 45 e4 01 00 00 00 	movl   $0x1,-0x1c(%rbp)
  4019c9:	eb 79                	jmp    401a44 <normalize+0x151>
  4019cb:	eb 35                	jmp    401a02 <normalize+0x10f>
  4019cd:	48 8b 45 d8          	mov    -0x28(%rbp),%rax
  4019d1:	8b 55 e4             	mov    -0x1c(%rbp),%edx
  4019d4:	48 63 d2             	movslq %edx,%rdx
  4019d7:	8b 54 d0 04          	mov    0x4(%rax,%rdx,8),%edx
  4019db:	48 8b 45 d8          	mov    -0x28(%rbp),%rax
  4019df:	8b 4d e0             	mov    -0x20(%rbp),%ecx
  4019e2:	48 63 c9             	movslq %ecx,%rcx
  4019e5:	8b 44 c8 04          	mov    0x4(%rax,%rcx,8),%eax
  4019e9:	89 d6                	mov    %edx,%esi
  4019eb:	89 c7                	mov    %eax,%edi
  4019ed:	e8 c4 fc ff ff       	callq  4016b6 <before>
  4019f2:	85 c0                	test   %eax,%eax
  4019f4:	75 0a                	jne    401a00 <normalize+0x10d>
  4019f6:	83 45 e4 01          	addl   $0x1,-0x1c(%rbp)
  4019fa:	83 6d e8 01          	subl   $0x1,-0x18(%rbp)
  4019fe:	eb 02                	jmp    401a02 <normalize+0x10f>
  401a00:	eb 08                	jmp    401a0a <normalize+0x117>
  401a02:	8b 45 e4             	mov    -0x1c(%rbp),%eax
  401a05:	3b 45 ec             	cmp    -0x14(%rbp),%eax
  401a08:	7c c3                	jl     4019cd <normalize+0xda>
  401a0a:	8b 45 e4             	mov    -0x1c(%rbp),%eax
  401a0d:	3b 45 ec             	cmp    -0x14(%rbp),%eax
  401a10:	7d 2a                	jge    401a3c <normalize+0x149>
  401a12:	8b 45 e0             	mov    -0x20(%rbp),%eax
  401a15:	83 c0 01             	add    $0x1,%eax
  401a18:	3b 45 e4             	cmp    -0x1c(%rbp),%eax
  401a1b:	7d 1f                	jge    401a3c <normalize+0x149>
  401a1d:	8b 45 e0             	mov    -0x20(%rbp),%eax
  401a20:	8d 50 01             	lea    0x1(%rax),%edx
  401a23:	48 8b 45 d8          	mov    -0x28(%rbp),%rax
  401a27:	48 63 d2             	movslq %edx,%rdx
  401a2a:	48 8b 4d d8          	mov    -0x28(%rbp),%rcx
  401a2e:	8b 75 e4             	mov    -0x1c(%rbp),%esi
  401a31:	48 63 f6             	movslq %esi,%rsi
  401a34:	48 8b 0c f1          	mov    (%rcx,%rsi,8),%rcx
  401a38:	48 89 0c d0          	mov    %rcx,(%rax,%rdx,8)
  401a3c:	83 45 e0 01          	addl   $0x1,-0x20(%rbp)
  401a40:	83 45 e4 01          	addl   $0x1,-0x1c(%rbp)
  401a44:	8b 45 e0             	mov    -0x20(%rbp),%eax
  401a47:	3b 45 ec             	cmp    -0x14(%rbp),%eax
  401a4a:	7d 0c                	jge    401a58 <normalize+0x165>
  401a4c:	8b 45 e4             	mov    -0x1c(%rbp),%eax
  401a4f:	3b 45 ec             	cmp    -0x14(%rbp),%eax
  401a52:	0f 8c 73 ff ff ff    	jl     4019cb <normalize+0xd8>
  401a58:	48 8b 45 d8          	mov    -0x28(%rbp),%rax
  401a5c:	8b 55 e8             	mov    -0x18(%rbp),%edx
  401a5f:	89 50 20             	mov    %edx,0x20(%rax)
  401a62:	c9                   	leaveq 
  401a63:	c3                   	retq   

0000000000401a64 <get_reordering>:
  401a64:	55                   	push   %rbp
  401a65:	48 89 e5             	mov    %rsp,%rbp
  401a68:	89 7d ec             	mov    %edi,-0x14(%rbp)
  401a6b:	48 89 75 e0          	mov    %rsi,-0x20(%rbp)
  401a6f:	48 89 55 d8          	mov    %rdx,-0x28(%rbp)
  401a73:	48 89 4d d0          	mov    %rcx,-0x30(%rbp)
  401a77:	48 8b 45 e0          	mov    -0x20(%rbp),%rax
  401a7b:	8b 40 20             	mov    0x20(%rax),%eax
  401a7e:	85 c0                	test   %eax,%eax
  401a80:	75 07                	jne    401a89 <get_reordering+0x25>
  401a82:	b8 00 00 00 00       	mov    $0x0,%eax
  401a87:	eb 52                	jmp    401adb <get_reordering+0x77>
  401a89:	48 8b 45 e0          	mov    -0x20(%rbp),%rax
  401a8d:	8b 40 20             	mov    0x20(%rax),%eax
  401a90:	83 e8 01             	sub    $0x1,%eax
  401a93:	89 45 fc             	mov    %eax,-0x4(%rbp)
  401a96:	48 8b 45 e0          	mov    -0x20(%rbp),%rax
  401a9a:	8b 55 fc             	mov    -0x4(%rbp),%edx
  401a9d:	48 63 d2             	movslq %edx,%rdx
  401aa0:	8b 04 d0             	mov    (%rax,%rdx,8),%eax
  401aa3:	3b 45 ec             	cmp    -0x14(%rbp),%eax
  401aa6:	76 2e                	jbe    401ad6 <get_reordering+0x72>
  401aa8:	48 8b 45 d8          	mov    -0x28(%rbp),%rax
  401aac:	8b 55 ec             	mov    -0x14(%rbp),%edx
  401aaf:	89 10                	mov    %edx,(%rax)
  401ab1:	48 8b 45 e0          	mov    -0x20(%rbp),%rax
  401ab5:	8b 55 fc             	mov    -0x4(%rbp),%edx
  401ab8:	48 63 d2             	movslq %edx,%rdx
  401abb:	8b 14 d0             	mov    (%rax,%rdx,8),%edx
  401abe:	48 8b 45 d0          	mov    -0x30(%rbp),%rax
  401ac2:	89 10                	mov    %edx,(%rax)
  401ac4:	48 8b 45 d0          	mov    -0x30(%rbp),%rax
  401ac8:	8b 10                	mov    (%rax),%edx
  401aca:	48 8b 45 d8          	mov    -0x28(%rbp),%rax
  401ace:	8b 00                	mov    (%rax),%eax
  401ad0:	29 c2                	sub    %eax,%edx
  401ad2:	89 d0                	mov    %edx,%eax
  401ad4:	eb 05                	jmp    401adb <get_reordering+0x77>
  401ad6:	b8 00 00 00 00       	mov    $0x0,%eax
  401adb:	5d                   	pop    %rbp
  401adc:	c3                   	retq   

0000000000401add <add_to_block_list>:
  401add:	55                   	push   %rbp
  401ade:	48 89 e5             	mov    %rsp,%rbp
  401ae1:	48 83 ec 40          	sub    $0x40,%rsp
  401ae5:	48 89 7d c8          	mov    %rdi,-0x38(%rbp)
  401ae9:	48 89 75 c0          	mov    %rsi,-0x40(%rbp)
  401aed:	c7 45 dc 00 00 00 00 	movl   $0x0,-0x24(%rbp)
  401af4:	c7 45 dc 00 00 00 00 	movl   $0x0,-0x24(%rbp)
  401afb:	e9 3a 01 00 00       	jmpq   401c3a <add_to_block_list+0x15d>
  401b00:	48 8b 45 c0          	mov    -0x40(%rbp),%rax
  401b04:	48 8b 00             	mov    (%rax),%rax
  401b07:	48 3b 45 c0          	cmp    -0x40(%rbp),%rax
  401b0b:	75 5e                	jne    401b6b <add_to_block_list+0x8e>
  401b0d:	bf 18 00 00 00       	mov    $0x18,%edi
  401b12:	e8 4a 35 00 00       	callq  405061 <my_malloc>
  401b17:	48 89 45 e0          	mov    %rax,-0x20(%rbp)
  401b1b:	48 8b 45 e0          	mov    -0x20(%rbp),%rax
  401b1f:	48 89 45 e8          	mov    %rax,-0x18(%rbp)
  401b23:	48 8b 45 c8          	mov    -0x38(%rbp),%rax
  401b27:	8b 55 dc             	mov    -0x24(%rbp),%edx
  401b2a:	48 63 d2             	movslq %edx,%rdx
  401b2d:	8b 14 d0             	mov    (%rax,%rdx,8),%edx
  401b30:	48 8b 45 e8          	mov    -0x18(%rbp),%rax
  401b34:	89 10                	mov    %edx,(%rax)
  401b36:	48 8b 45 c8          	mov    -0x38(%rbp),%rax
  401b3a:	8b 55 dc             	mov    -0x24(%rbp),%edx
  401b3d:	48 63 d2             	movslq %edx,%rdx
  401b40:	8b 54 d0 04          	mov    0x4(%rax,%rdx,8),%edx
  401b44:	48 8b 45 e8          	mov    -0x18(%rbp),%rax
  401b48:	89 50 04             	mov    %edx,0x4(%rax)
  401b4b:	48 8b 45 e8          	mov    -0x18(%rbp),%rax
  401b4f:	48 8d 48 08          	lea    0x8(%rax),%rcx
  401b53:	48 8b 55 c0          	mov    -0x40(%rbp),%rdx
  401b57:	48 8b 45 c0          	mov    -0x40(%rbp),%rax
  401b5b:	48 89 c6             	mov    %rax,%rsi
  401b5e:	48 89 cf             	mov    %rcx,%rdi
  401b61:	e8 6c fb ff ff       	callq  4016d2 <list_insert>
  401b66:	e9 cb 00 00 00       	jmpq   401c36 <add_to_block_list+0x159>
  401b6b:	48 8b 45 c0          	mov    -0x40(%rbp),%rax
  401b6f:	48 8b 40 08          	mov    0x8(%rax),%rax
  401b73:	48 83 e8 08          	sub    $0x8,%rax
  401b77:	48 89 45 f0          	mov    %rax,-0x10(%rbp)
  401b7b:	48 8b 45 f0          	mov    -0x10(%rbp),%rax
  401b7f:	8b 50 04             	mov    0x4(%rax),%edx
  401b82:	48 8b 45 c8          	mov    -0x38(%rbp),%rax
  401b86:	8b 4d dc             	mov    -0x24(%rbp),%ecx
  401b89:	48 63 c9             	movslq %ecx,%rcx
  401b8c:	8b 44 c8 04          	mov    0x4(%rax,%rcx,8),%eax
  401b90:	89 d6                	mov    %edx,%esi
  401b92:	89 c7                	mov    %eax,%edi
  401b94:	e8 1d fb ff ff       	callq  4016b6 <before>
  401b99:	85 c0                	test   %eax,%eax
  401b9b:	0f 85 95 00 00 00    	jne    401c36 <add_to_block_list+0x159>
  401ba1:	48 8b 45 c8          	mov    -0x38(%rbp),%rax
  401ba5:	8b 55 dc             	mov    -0x24(%rbp),%edx
  401ba8:	48 63 d2             	movslq %edx,%rdx
  401bab:	8b 14 d0             	mov    (%rax,%rdx,8),%edx
  401bae:	48 8b 45 f0          	mov    -0x10(%rbp),%rax
  401bb2:	8b 40 04             	mov    0x4(%rax),%eax
  401bb5:	89 d6                	mov    %edx,%esi
  401bb7:	89 c7                	mov    %eax,%edi
  401bb9:	e8 f8 fa ff ff       	callq  4016b6 <before>
  401bbe:	85 c0                	test   %eax,%eax
  401bc0:	74 5f                	je     401c21 <add_to_block_list+0x144>
  401bc2:	bf 18 00 00 00       	mov    $0x18,%edi
  401bc7:	e8 95 34 00 00       	callq  405061 <my_malloc>
  401bcc:	48 89 45 f8          	mov    %rax,-0x8(%rbp)
  401bd0:	48 8b 45 f8          	mov    -0x8(%rbp),%rax
  401bd4:	48 89 45 e8          	mov    %rax,-0x18(%rbp)
  401bd8:	48 8b 45 c8          	mov    -0x38(%rbp),%rax
  401bdc:	8b 55 dc             	mov    -0x24(%rbp),%edx
  401bdf:	48 63 d2             	movslq %edx,%rdx
  401be2:	8b 14 d0             	mov    (%rax,%rdx,8),%edx
  401be5:	48 8b 45 e8          	mov    -0x18(%rbp),%rax
  401be9:	89 10                	mov    %edx,(%rax)
  401beb:	48 8b 45 c8          	mov    -0x38(%rbp),%rax
  401bef:	8b 55 dc             	mov    -0x24(%rbp),%edx
  401bf2:	48 63 d2             	movslq %edx,%rdx
  401bf5:	8b 54 d0 04          	mov    0x4(%rax,%rdx,8),%edx
  401bf9:	48 8b 45 e8          	mov    -0x18(%rbp),%rax
  401bfd:	89 50 04             	mov    %edx,0x4(%rax)
  401c00:	48 8b 45 c0          	mov    -0x40(%rbp),%rax
  401c04:	48 8b 40 08          	mov    0x8(%rax),%rax
  401c08:	48 8b 55 e8          	mov    -0x18(%rbp),%rdx
  401c0c:	48 8d 4a 08          	lea    0x8(%rdx),%rcx
  401c10:	48 8b 55 c0          	mov    -0x40(%rbp),%rdx
  401c14:	48 89 c6             	mov    %rax,%rsi
  401c17:	48 89 cf             	mov    %rcx,%rdi
  401c1a:	e8 b3 fa ff ff       	callq  4016d2 <list_insert>
  401c1f:	eb 15                	jmp    401c36 <add_to_block_list+0x159>
  401c21:	48 8b 45 c8          	mov    -0x38(%rbp),%rax
  401c25:	8b 55 dc             	mov    -0x24(%rbp),%edx
  401c28:	48 63 d2             	movslq %edx,%rdx
  401c2b:	8b 54 d0 04          	mov    0x4(%rax,%rdx,8),%edx
  401c2f:	48 8b 45 f0          	mov    -0x10(%rbp),%rax
  401c33:	89 50 04             	mov    %edx,0x4(%rax)
  401c36:	83 45 dc 01          	addl   $0x1,-0x24(%rbp)
  401c3a:	48 8b 45 c8          	mov    -0x38(%rbp),%rax
  401c3e:	8b 40 20             	mov    0x20(%rax),%eax
  401c41:	3b 45 dc             	cmp    -0x24(%rbp),%eax
  401c44:	0f 8f b6 fe ff ff    	jg     401b00 <add_to_block_list+0x23>
  401c4a:	c9                   	leaveq 
  401c4b:	c3                   	retq   

0000000000401c4c <get_tcp_option>:
  401c4c:	55                   	push   %rbp
  401c4d:	48 89 e5             	mov    %rsp,%rbp
  401c50:	48 83 ec 30          	sub    $0x30,%rsp
  401c54:	48 89 7d d8          	mov    %rdi,-0x28(%rbp)
  401c58:	48 89 75 d0          	mov    %rsi,-0x30(%rbp)
  401c5c:	48 8b 45 d0          	mov    -0x30(%rbp),%rax
  401c60:	ba 34 00 00 00       	mov    $0x34,%edx
  401c65:	be 00 00 00 00       	mov    $0x0,%esi
  401c6a:	48 89 c7             	mov    %rax,%rdi
  401c6d:	e8 de f1 ff ff       	callq  400e50 <memset@plt>
  401c72:	48 8b 45 d8          	mov    -0x28(%rbp),%rax
  401c76:	48 83 c0 14          	add    $0x14,%rax
  401c7a:	48 89 45 f8          	mov    %rax,-0x8(%rbp)
  401c7e:	48 8b 45 d8          	mov    -0x28(%rbp),%rax
  401c82:	0f b6 40 0c          	movzbl 0xc(%rax),%eax
  401c86:	c0 e8 04             	shr    $0x4,%al
  401c89:	0f b6 c0             	movzbl %al,%eax
  401c8c:	83 e8 05             	sub    $0x5,%eax
  401c8f:	c1 e0 02             	shl    $0x2,%eax
  401c92:	89 45 ec             	mov    %eax,-0x14(%rbp)
  401c95:	83 7d ec 00          	cmpl   $0x0,-0x14(%rbp)
  401c99:	7f 0a                	jg     401ca5 <get_tcp_option+0x59>
  401c9b:	b8 00 00 00 00       	mov    $0x0,%eax
  401ca0:	e9 e0 02 00 00       	jmpq   401f85 <get_tcp_option+0x339>
  401ca5:	c7 45 f0 00 00 00 00 	movl   $0x0,-0x10(%rbp)
  401cac:	c7 45 f4 00 00 00 00 	movl   $0x0,-0xc(%rbp)
  401cb3:	c7 45 e4 00 00 00 00 	movl   $0x0,-0x1c(%rbp)
  401cba:	e9 b5 02 00 00       	jmpq   401f74 <get_tcp_option+0x328>
  401cbf:	8b 45 e4             	mov    -0x1c(%rbp),%eax
  401cc2:	48 63 d0             	movslq %eax,%rdx
  401cc5:	48 8b 45 f8          	mov    -0x8(%rbp),%rax
  401cc9:	48 01 d0             	add    %rdx,%rax
  401ccc:	0f b6 00             	movzbl (%rax),%eax
  401ccf:	0f be c0             	movsbl %al,%eax
  401cd2:	89 45 f0             	mov    %eax,-0x10(%rbp)
  401cd5:	83 7d f0 00          	cmpl   $0x0,-0x10(%rbp)
  401cd9:	75 0a                	jne    401ce5 <get_tcp_option+0x99>
  401cdb:	b8 00 00 00 00       	mov    $0x0,%eax
  401ce0:	e9 a0 02 00 00       	jmpq   401f85 <get_tcp_option+0x339>
  401ce5:	83 7d f0 01          	cmpl   $0x1,-0x10(%rbp)
  401ce9:	75 09                	jne    401cf4 <get_tcp_option+0xa8>
  401ceb:	83 45 e4 01          	addl   $0x1,-0x1c(%rbp)
  401cef:	e9 80 02 00 00       	jmpq   401f74 <get_tcp_option+0x328>
  401cf4:	48 8b 45 d0          	mov    -0x30(%rbp),%rax
  401cf8:	8b 10                	mov    (%rax),%edx
  401cfa:	8b 45 f0             	mov    -0x10(%rbp),%eax
  401cfd:	89 c1                	mov    %eax,%ecx
  401cff:	d3 fa                	sar    %cl,%edx
  401d01:	89 d0                	mov    %edx,%eax
  401d03:	83 e0 01             	and    $0x1,%eax
  401d06:	85 c0                	test   %eax,%eax
  401d08:	74 28                	je     401d32 <get_tcp_option+0xe6>
  401d0a:	48 8b 05 1f 65 20 00 	mov    0x20651f(%rip),%rax        # 608230 <stderr@@GLIBC_2.2.5>
  401d11:	8b 55 f0             	mov    -0x10(%rbp),%edx
  401d14:	89 d1                	mov    %edx,%ecx
  401d16:	ba 48 5c 40 00       	mov    $0x405c48,%edx
  401d1b:	be 4e 5c 40 00       	mov    $0x405c4e,%esi
  401d20:	48 89 c7             	mov    %rax,%rdi
  401d23:	b8 00 00 00 00       	mov    $0x0,%eax
  401d28:	e8 93 f1 ff ff       	callq  400ec0 <fprintf@plt>
  401d2d:	e9 4e 02 00 00       	jmpq   401f80 <get_tcp_option+0x334>
  401d32:	8b 45 e4             	mov    -0x1c(%rbp),%eax
  401d35:	48 98                	cltq   
  401d37:	48 8d 50 01          	lea    0x1(%rax),%rdx
  401d3b:	48 8b 45 f8          	mov    -0x8(%rbp),%rax
  401d3f:	48 01 d0             	add    %rdx,%rax
  401d42:	0f b6 00             	movzbl (%rax),%eax
  401d45:	0f be c0             	movsbl %al,%eax
  401d48:	89 45 f4             	mov    %eax,-0xc(%rbp)
  401d4b:	83 6d f4 02          	subl   $0x2,-0xc(%rbp)
  401d4f:	83 7d f4 00          	cmpl   $0x0,-0xc(%rbp)
  401d53:	79 33                	jns    401d88 <get_tcp_option+0x13c>
  401d55:	48 8b 05 d4 64 20 00 	mov    0x2064d4(%rip),%rax        # 608230 <stderr@@GLIBC_2.2.5>
  401d5c:	8b 4d f4             	mov    -0xc(%rbp),%ecx
  401d5f:	8b 55 f0             	mov    -0x10(%rbp),%edx
  401d62:	41 89 c8             	mov    %ecx,%r8d
  401d65:	89 d1                	mov    %edx,%ecx
  401d67:	ba 6c 5c 40 00       	mov    $0x405c6c,%edx
  401d6c:	be 78 5c 40 00       	mov    $0x405c78,%esi
  401d71:	48 89 c7             	mov    %rax,%rdi
  401d74:	b8 00 00 00 00       	mov    $0x0,%eax
  401d79:	e8 42 f1 ff ff       	callq  400ec0 <fprintf@plt>
  401d7e:	b8 ff ff ff ff       	mov    $0xffffffff,%eax
  401d83:	e9 fd 01 00 00       	jmpq   401f85 <get_tcp_option+0x339>
  401d88:	83 7d f0 08          	cmpl   $0x8,-0x10(%rbp)
  401d8c:	0f 87 b6 01 00 00    	ja     401f48 <get_tcp_option+0x2fc>
  401d92:	8b 45 f0             	mov    -0x10(%rbp),%eax
  401d95:	48 8b 04 c5 00 5d 40 	mov    0x405d00(,%rax,8),%rax
  401d9c:	00 
  401d9d:	ff e0                	jmpq   *%rax
  401d9f:	8b 45 e4             	mov    -0x1c(%rbp),%eax
  401da2:	48 98                	cltq   
  401da4:	48 8d 50 02          	lea    0x2(%rax),%rdx
  401da8:	48 8b 45 f8          	mov    -0x8(%rbp),%rax
  401dac:	48 01 d0             	add    %rdx,%rax
  401daf:	0f b7 00             	movzwl (%rax),%eax
  401db2:	0f b7 c0             	movzwl %ax,%eax
  401db5:	89 c7                	mov    %eax,%edi
  401db7:	e8 84 f1 ff ff       	callq  400f40 <ntohs@plt>
  401dbc:	48 8b 55 d0          	mov    -0x30(%rbp),%rdx
  401dc0:	66 89 42 04          	mov    %ax,0x4(%rdx)
  401dc4:	e9 80 01 00 00       	jmpq   401f49 <get_tcp_option+0x2fd>
  401dc9:	8b 45 e4             	mov    -0x1c(%rbp),%eax
  401dcc:	48 98                	cltq   
  401dce:	48 8d 50 02          	lea    0x2(%rax),%rdx
  401dd2:	48 8b 45 f8          	mov    -0x8(%rbp),%rax
  401dd6:	48 01 d0             	add    %rdx,%rax
  401dd9:	0f b6 10             	movzbl (%rax),%edx
  401ddc:	48 8b 45 d0          	mov    -0x30(%rbp),%rax
  401de0:	88 50 06             	mov    %dl,0x6(%rax)
  401de3:	e9 61 01 00 00       	jmpq   401f49 <get_tcp_option+0x2fd>
  401de8:	48 8b 45 d0          	mov    -0x30(%rbp),%rax
  401dec:	c6 40 07 01          	movb   $0x1,0x7(%rax)
  401df0:	e9 54 01 00 00       	jmpq   401f49 <get_tcp_option+0x2fd>
  401df5:	8b 45 f4             	mov    -0xc(%rbp),%eax
  401df8:	83 e0 07             	and    $0x7,%eax
  401dfb:	85 c0                	test   %eax,%eax
  401dfd:	74 2d                	je     401e2c <get_tcp_option+0x1e0>
  401dff:	48 8b 05 2a 64 20 00 	mov    0x20642a(%rip),%rax        # 608230 <stderr@@GLIBC_2.2.5>
  401e06:	8b 55 f4             	mov    -0xc(%rbp),%edx
  401e09:	89 d1                	mov    %edx,%ecx
  401e0b:	ba 6c 5c 40 00       	mov    $0x405c6c,%edx
  401e10:	be a0 5c 40 00       	mov    $0x405ca0,%esi
  401e15:	48 89 c7             	mov    %rax,%rdi
  401e18:	b8 00 00 00 00       	mov    $0x0,%eax
  401e1d:	e8 9e f0 ff ff       	callq  400ec0 <fprintf@plt>
  401e22:	b8 ff ff ff ff       	mov    $0xffffffff,%eax
  401e27:	e9 59 01 00 00       	jmpq   401f85 <get_tcp_option+0x339>
  401e2c:	8b 45 f4             	mov    -0xc(%rbp),%eax
  401e2f:	8d 50 07             	lea    0x7(%rax),%edx
  401e32:	85 c0                	test   %eax,%eax
  401e34:	0f 48 c2             	cmovs  %edx,%eax
  401e37:	c1 f8 03             	sar    $0x3,%eax
  401e3a:	89 c2                	mov    %eax,%edx
  401e3c:	48 8b 45 d0          	mov    -0x30(%rbp),%rax
  401e40:	89 50 28             	mov    %edx,0x28(%rax)
  401e43:	c7 45 e8 00 00 00 00 	movl   $0x0,-0x18(%rbp)
  401e4a:	c7 45 e8 00 00 00 00 	movl   $0x0,-0x18(%rbp)
  401e51:	eb 6a                	jmp    401ebd <get_tcp_option+0x271>
  401e53:	8b 45 e4             	mov    -0x1c(%rbp),%eax
  401e56:	48 63 d0             	movslq %eax,%rdx
  401e59:	8b 45 e8             	mov    -0x18(%rbp),%eax
  401e5c:	c1 e0 03             	shl    $0x3,%eax
  401e5f:	48 98                	cltq   
  401e61:	48 01 d0             	add    %rdx,%rax
  401e64:	48 8d 50 02          	lea    0x2(%rax),%rdx
  401e68:	48 8b 45 f8          	mov    -0x8(%rbp),%rax
  401e6c:	48 01 d0             	add    %rdx,%rax
  401e6f:	8b 00                	mov    (%rax),%eax
  401e71:	89 c7                	mov    %eax,%edi
  401e73:	e8 38 f1 ff ff       	callq  400fb0 <ntohl@plt>
  401e78:	48 8b 55 d0          	mov    -0x30(%rbp),%rdx
  401e7c:	8b 4d e8             	mov    -0x18(%rbp),%ecx
  401e7f:	48 63 c9             	movslq %ecx,%rcx
  401e82:	89 44 ca 08          	mov    %eax,0x8(%rdx,%rcx,8)
  401e86:	8b 45 e4             	mov    -0x1c(%rbp),%eax
  401e89:	48 63 d0             	movslq %eax,%rdx
  401e8c:	8b 45 e8             	mov    -0x18(%rbp),%eax
  401e8f:	c1 e0 03             	shl    $0x3,%eax
  401e92:	48 98                	cltq   
  401e94:	48 01 d0             	add    %rdx,%rax
  401e97:	48 8d 50 06          	lea    0x6(%rax),%rdx
  401e9b:	48 8b 45 f8          	mov    -0x8(%rbp),%rax
  401e9f:	48 01 d0             	add    %rdx,%rax
  401ea2:	8b 00                	mov    (%rax),%eax
  401ea4:	89 c7                	mov    %eax,%edi
  401ea6:	e8 05 f1 ff ff       	callq  400fb0 <ntohl@plt>
  401eab:	48 8b 55 d0          	mov    -0x30(%rbp),%rdx
  401eaf:	8b 4d e8             	mov    -0x18(%rbp),%ecx
  401eb2:	48 63 c9             	movslq %ecx,%rcx
  401eb5:	89 44 ca 0c          	mov    %eax,0xc(%rdx,%rcx,8)
  401eb9:	83 45 e8 01          	addl   $0x1,-0x18(%rbp)
  401ebd:	8b 45 f4             	mov    -0xc(%rbp),%eax
  401ec0:	8d 50 07             	lea    0x7(%rax),%edx
  401ec3:	85 c0                	test   %eax,%eax
  401ec5:	0f 48 c2             	cmovs  %edx,%eax
  401ec8:	c1 f8 03             	sar    $0x3,%eax
  401ecb:	3b 45 e8             	cmp    -0x18(%rbp),%eax
  401ece:	7f 83                	jg     401e53 <get_tcp_option+0x207>
  401ed0:	eb 77                	jmp    401f49 <get_tcp_option+0x2fd>
  401ed2:	8b 45 f4             	mov    -0xc(%rbp),%eax
  401ed5:	83 e0 03             	and    $0x3,%eax
  401ed8:	85 c0                	test   %eax,%eax
  401eda:	74 2a                	je     401f06 <get_tcp_option+0x2ba>
  401edc:	48 8b 05 4d 63 20 00 	mov    0x20634d(%rip),%rax        # 608230 <stderr@@GLIBC_2.2.5>
  401ee3:	8b 55 f4             	mov    -0xc(%rbp),%edx
  401ee6:	89 d1                	mov    %edx,%ecx
  401ee8:	ba 6c 5c 40 00       	mov    $0x405c6c,%edx
  401eed:	be d0 5c 40 00       	mov    $0x405cd0,%esi
  401ef2:	48 89 c7             	mov    %rax,%rdi
  401ef5:	b8 00 00 00 00       	mov    $0x0,%eax
  401efa:	e8 c1 ef ff ff       	callq  400ec0 <fprintf@plt>
  401eff:	b8 ff ff ff ff       	mov    $0xffffffff,%eax
  401f04:	eb 7f                	jmp    401f85 <get_tcp_option+0x339>
  401f06:	8b 45 e4             	mov    -0x1c(%rbp),%eax
  401f09:	48 98                	cltq   
  401f0b:	48 8d 50 02          	lea    0x2(%rax),%rdx
  401f0f:	48 8b 45 f8          	mov    -0x8(%rbp),%rax
  401f13:	48 01 d0             	add    %rdx,%rax
  401f16:	8b 00                	mov    (%rax),%eax
  401f18:	89 c7                	mov    %eax,%edi
  401f1a:	e8 91 f0 ff ff       	callq  400fb0 <ntohl@plt>
  401f1f:	48 8b 55 d0          	mov    -0x30(%rbp),%rdx
  401f23:	89 42 2c             	mov    %eax,0x2c(%rdx)
  401f26:	8b 45 e4             	mov    -0x1c(%rbp),%eax
  401f29:	48 98                	cltq   
  401f2b:	48 8d 50 06          	lea    0x6(%rax),%rdx
  401f2f:	48 8b 45 f8          	mov    -0x8(%rbp),%rax
  401f33:	48 01 d0             	add    %rdx,%rax
  401f36:	8b 00                	mov    (%rax),%eax
  401f38:	89 c7                	mov    %eax,%edi
  401f3a:	e8 71 f0 ff ff       	callq  400fb0 <ntohl@plt>
  401f3f:	48 8b 55 d0          	mov    -0x30(%rbp),%rdx
  401f43:	89 42 30             	mov    %eax,0x30(%rdx)
  401f46:	eb 01                	jmp    401f49 <get_tcp_option+0x2fd>
  401f48:	90                   	nop
  401f49:	83 7d f0 08          	cmpl   $0x8,-0x10(%rbp)
  401f4d:	7f 1c                	jg     401f6b <get_tcp_option+0x31f>
  401f4f:	48 8b 45 d0          	mov    -0x30(%rbp),%rax
  401f53:	8b 10                	mov    (%rax),%edx
  401f55:	8b 45 f0             	mov    -0x10(%rbp),%eax
  401f58:	be 01 00 00 00       	mov    $0x1,%esi
  401f5d:	89 c1                	mov    %eax,%ecx
  401f5f:	d3 e6                	shl    %cl,%esi
  401f61:	89 f0                	mov    %esi,%eax
  401f63:	09 c2                	or     %eax,%edx
  401f65:	48 8b 45 d0          	mov    -0x30(%rbp),%rax
  401f69:	89 10                	mov    %edx,(%rax)
  401f6b:	8b 45 f4             	mov    -0xc(%rbp),%eax
  401f6e:	83 c0 02             	add    $0x2,%eax
  401f71:	01 45 e4             	add    %eax,-0x1c(%rbp)
  401f74:	8b 45 e4             	mov    -0x1c(%rbp),%eax
  401f77:	3b 45 ec             	cmp    -0x14(%rbp),%eax
  401f7a:	0f 8c 3f fd ff ff    	jl     401cbf <get_tcp_option+0x73>
  401f80:	b8 00 00 00 00       	mov    $0x0,%eax
  401f85:	c9                   	leaveq 
  401f86:	c3                   	retq   

0000000000401f87 <list_insert>:
  401f87:	55                   	push   %rbp
  401f88:	48 89 e5             	mov    %rsp,%rbp
  401f8b:	48 89 7d f8          	mov    %rdi,-0x8(%rbp)
  401f8f:	48 89 75 f0          	mov    %rsi,-0x10(%rbp)
  401f93:	48 89 55 e8          	mov    %rdx,-0x18(%rbp)
  401f97:	48 8b 45 e8          	mov    -0x18(%rbp),%rax
  401f9b:	48 8b 55 f8          	mov    -0x8(%rbp),%rdx
  401f9f:	48 89 50 08          	mov    %rdx,0x8(%rax)
  401fa3:	48 8b 45 f0          	mov    -0x10(%rbp),%rax
  401fa7:	48 8b 55 f8          	mov    -0x8(%rbp),%rdx
  401fab:	48 89 10             	mov    %rdx,(%rax)
  401fae:	48 8b 45 f8          	mov    -0x8(%rbp),%rax
  401fb2:	48 8b 55 e8          	mov    -0x18(%rbp),%rdx
  401fb6:	48 89 10             	mov    %rdx,(%rax)
  401fb9:	48 8b 45 f8          	mov    -0x8(%rbp),%rax
  401fbd:	48 8b 55 f0          	mov    -0x10(%rbp),%rdx
  401fc1:	48 89 50 08          	mov    %rdx,0x8(%rax)
  401fc5:	5d                   	pop    %rbp
  401fc6:	c3                   	retq   

0000000000401fc7 <list_delete_entry>:
  401fc7:	55                   	push   %rbp
  401fc8:	48 89 e5             	mov    %rsp,%rbp
  401fcb:	48 89 7d f8          	mov    %rdi,-0x8(%rbp)
  401fcf:	48 8b 45 f8          	mov    -0x8(%rbp),%rax
  401fd3:	48 8b 00             	mov    (%rax),%rax
  401fd6:	48 8b 55 f8          	mov    -0x8(%rbp),%rdx
  401fda:	48 8b 52 08          	mov    0x8(%rdx),%rdx
  401fde:	48 89 50 08          	mov    %rdx,0x8(%rax)
  401fe2:	48 8b 45 f8          	mov    -0x8(%rbp),%rax
  401fe6:	48 8b 40 08          	mov    0x8(%rax),%rax
  401fea:	48 8b 55 f8          	mov    -0x8(%rbp),%rdx
  401fee:	48 8b 12             	mov    (%rdx),%rdx
  401ff1:	48 89 10             	mov    %rdx,(%rax)
  401ff4:	5d                   	pop    %rbp
  401ff5:	c3                   	retq   

0000000000401ff6 <list_add_tail>:
  401ff6:	55                   	push   %rbp
  401ff7:	48 89 e5             	mov    %rsp,%rbp
  401ffa:	48 83 ec 10          	sub    $0x10,%rsp
  401ffe:	48 89 7d f8          	mov    %rdi,-0x8(%rbp)
  402002:	48 89 75 f0          	mov    %rsi,-0x10(%rbp)
  402006:	48 8b 45 f0          	mov    -0x10(%rbp),%rax
  40200a:	48 8b 48 08          	mov    0x8(%rax),%rcx
  40200e:	48 8b 55 f0          	mov    -0x10(%rbp),%rdx
  402012:	48 8b 45 f8          	mov    -0x8(%rbp),%rax
  402016:	48 89 ce             	mov    %rcx,%rsi
  402019:	48 89 c7             	mov    %rax,%rdi
  40201c:	e8 66 ff ff ff       	callq  401f87 <list_insert>
  402021:	c9                   	leaveq 
  402022:	c3                   	retq   

0000000000402023 <before>:
  402023:	55                   	push   %rbp
  402024:	48 89 e5             	mov    %rsp,%rbp
  402027:	89 7d fc             	mov    %edi,-0x4(%rbp)
  40202a:	89 75 f8             	mov    %esi,-0x8(%rbp)
  40202d:	8b 45 f8             	mov    -0x8(%rbp),%eax
  402030:	8b 55 fc             	mov    -0x4(%rbp),%edx
  402033:	29 c2                	sub    %eax,%edx
  402035:	89 d0                	mov    %edx,%eax
  402037:	c1 e8 1f             	shr    $0x1f,%eax
  40203a:	0f b6 c0             	movzbl %al,%eax
  40203d:	5d                   	pop    %rbp
  40203e:	c3                   	retq   

000000000040203f <insert_seq_rtt>:
  40203f:	55                   	push   %rbp
  402040:	48 89 e5             	mov    %rsp,%rbp
  402043:	48 83 ec 30          	sub    $0x30,%rsp
  402047:	89 7d ec             	mov    %edi,-0x14(%rbp)
  40204a:	f2 0f 11 45 e0       	movsd  %xmm0,-0x20(%rbp)
  40204f:	48 89 75 d8          	mov    %rsi,-0x28(%rbp)
  402053:	bf 20 00 00 00       	mov    $0x20,%edi
  402058:	e8 04 30 00 00       	callq  405061 <my_malloc>
  40205d:	48 89 45 f0          	mov    %rax,-0x10(%rbp)
  402061:	48 8b 45 f0          	mov    -0x10(%rbp),%rax
  402065:	48 89 45 f8          	mov    %rax,-0x8(%rbp)
  402069:	48 8b 45 f8          	mov    -0x8(%rbp),%rax
  40206d:	8b 55 ec             	mov    -0x14(%rbp),%edx
  402070:	89 10                	mov    %edx,(%rax)
  402072:	48 8b 55 f8          	mov    -0x8(%rbp),%rdx
  402076:	48 8b 45 e0          	mov    -0x20(%rbp),%rax
  40207a:	48 89 42 08          	mov    %rax,0x8(%rdx)
  40207e:	48 8b 45 f8          	mov    -0x8(%rbp),%rax
  402082:	48 8d 50 10          	lea    0x10(%rax),%rdx
  402086:	48 8b 45 d8          	mov    -0x28(%rbp),%rax
  40208a:	48 89 c6             	mov    %rax,%rsi
  40208d:	48 89 d7             	mov    %rdx,%rdi
  402090:	e8 61 ff ff ff       	callq  401ff6 <list_add_tail>
  402095:	c9                   	leaveq 
  402096:	c3                   	retq   

0000000000402097 <delete_rtt_list_prev>:
  402097:	55                   	push   %rbp
  402098:	48 89 e5             	mov    %rsp,%rbp
  40209b:	48 83 ec 20          	sub    $0x20,%rsp
  40209f:	48 89 7d e8          	mov    %rdi,-0x18(%rbp)
  4020a3:	48 89 75 e0          	mov    %rsi,-0x20(%rbp)
  4020a7:	48 c7 45 f8 00 00 00 	movq   $0x0,-0x8(%rbp)
  4020ae:	00 
  4020af:	eb 30                	jmp    4020e1 <delete_rtt_list_prev+0x4a>
  4020b1:	48 8b 45 e8          	mov    -0x18(%rbp),%rax
  4020b5:	48 89 45 f8          	mov    %rax,-0x8(%rbp)
  4020b9:	48 8b 45 e8          	mov    -0x18(%rbp),%rax
  4020bd:	48 8b 40 08          	mov    0x8(%rax),%rax
  4020c1:	48 89 45 e8          	mov    %rax,-0x18(%rbp)
  4020c5:	48 8b 45 f8          	mov    -0x8(%rbp),%rax
  4020c9:	48 89 c7             	mov    %rax,%rdi
  4020cc:	e8 f6 fe ff ff       	callq  401fc7 <list_delete_entry>
  4020d1:	48 8b 45 f8          	mov    -0x8(%rbp),%rax
  4020d5:	48 83 e8 10          	sub    $0x10,%rax
  4020d9:	48 89 c7             	mov    %rax,%rdi
  4020dc:	e8 d7 2f 00 00       	callq  4050b8 <my_free>
  4020e1:	48 8b 45 e8          	mov    -0x18(%rbp),%rax
  4020e5:	48 3b 45 e0          	cmp    -0x20(%rbp),%rax
  4020e9:	75 c6                	jne    4020b1 <delete_rtt_list_prev+0x1a>
  4020eb:	c9                   	leaveq 
  4020ec:	c3                   	retq   

00000000004020ed <get_rtt>:
  4020ed:	55                   	push   %rbp
  4020ee:	48 89 e5             	mov    %rsp,%rbp
  4020f1:	48 83 ec 40          	sub    $0x40,%rsp
  4020f5:	89 7d dc             	mov    %edi,-0x24(%rbp)
  4020f8:	f2 0f 11 45 d0       	movsd  %xmm0,-0x30(%rbp)
  4020fd:	48 89 75 c8          	mov    %rsi,-0x38(%rbp)
  402101:	c7 45 e8 00 00 00 00 	movl   $0x0,-0x18(%rbp)
  402108:	48 8b 45 c8          	mov    -0x38(%rbp),%rax
  40210c:	48 8b 40 08          	mov    0x8(%rax),%rax
  402110:	48 89 45 f0          	mov    %rax,-0x10(%rbp)
  402114:	eb 44                	jmp    40215a <get_rtt+0x6d>
  402116:	48 8b 45 f0          	mov    -0x10(%rbp),%rax
  40211a:	48 83 e8 10          	sub    $0x10,%rax
  40211e:	48 89 45 f8          	mov    %rax,-0x8(%rbp)
  402122:	48 8b 45 f8          	mov    -0x8(%rbp),%rax
  402126:	8b 00                	mov    (%rax),%eax
  402128:	3b 45 dc             	cmp    -0x24(%rbp),%eax
  40212b:	75 09                	jne    402136 <get_rtt+0x49>
  40212d:	c7 45 e8 01 00 00 00 	movl   $0x1,-0x18(%rbp)
  402134:	eb 2e                	jmp    402164 <get_rtt+0x77>
  402136:	48 8b 45 f8          	mov    -0x8(%rbp),%rax
  40213a:	8b 00                	mov    (%rax),%eax
  40213c:	8b 55 dc             	mov    -0x24(%rbp),%edx
  40213f:	89 d6                	mov    %edx,%esi
  402141:	89 c7                	mov    %eax,%edi
  402143:	e8 db fe ff ff       	callq  402023 <before>
  402148:	85 c0                	test   %eax,%eax
  40214a:	74 02                	je     40214e <get_rtt+0x61>
  40214c:	eb 16                	jmp    402164 <get_rtt+0x77>
  40214e:	48 8b 45 f0          	mov    -0x10(%rbp),%rax
  402152:	48 8b 40 08          	mov    0x8(%rax),%rax
  402156:	48 89 45 f0          	mov    %rax,-0x10(%rbp)
  40215a:	48 8b 45 f0          	mov    -0x10(%rbp),%rax
  40215e:	48 3b 45 c8          	cmp    -0x38(%rbp),%rax
  402162:	75 b2                	jne    402116 <get_rtt+0x29>
  402164:	c7 45 ec 00 00 00 00 	movl   $0x0,-0x14(%rbp)
  40216b:	83 7d e8 01          	cmpl   $0x1,-0x18(%rbp)
  40216f:	75 38                	jne    4021a9 <get_rtt+0xbc>
  402171:	48 8b 45 f8          	mov    -0x8(%rbp),%rax
  402175:	f2 0f 10 48 08       	movsd  0x8(%rax),%xmm1
  40217a:	f2 0f 10 45 d0       	movsd  -0x30(%rbp),%xmm0
  40217f:	f2 0f 5c c1          	subsd  %xmm1,%xmm0
  402183:	f2 0f 10 0d bd 3b 00 	movsd  0x3bbd(%rip),%xmm1        # 405d48 <_IO_stdin_used+0x418>
  40218a:	00 
  40218b:	f2 0f 59 c1          	mulsd  %xmm1,%xmm0
  40218f:	f2 0f 2c c0          	cvttsd2si %xmm0,%eax
  402193:	89 45 ec             	mov    %eax,-0x14(%rbp)
  402196:	48 8b 55 c8          	mov    -0x38(%rbp),%rdx
  40219a:	48 8b 45 f0          	mov    -0x10(%rbp),%rax
  40219e:	48 89 d6             	mov    %rdx,%rsi
  4021a1:	48 89 c7             	mov    %rax,%rdi
  4021a4:	e8 ee fe ff ff       	callq  402097 <delete_rtt_list_prev>
  4021a9:	8b 45 ec             	mov    -0x14(%rbp),%eax
  4021ac:	c9                   	leaveq 
  4021ad:	c3                   	retq   

00000000004021ae <delete_rtt_list>:
  4021ae:	55                   	push   %rbp
  4021af:	48 89 e5             	mov    %rsp,%rbp
  4021b2:	48 83 ec 10          	sub    $0x10,%rsp
  4021b6:	48 89 7d f8          	mov    %rdi,-0x8(%rbp)
  4021ba:	48 8b 45 f8          	mov    -0x8(%rbp),%rax
  4021be:	48 8b 40 08          	mov    0x8(%rax),%rax
  4021c2:	48 8b 55 f8          	mov    -0x8(%rbp),%rdx
  4021c6:	48 89 d6             	mov    %rdx,%rsi
  4021c9:	48 89 c7             	mov    %rax,%rdi
  4021cc:	e8 c6 fe ff ff       	callq  402097 <delete_rtt_list_prev>
  4021d1:	c9                   	leaveq 
  4021d2:	c3                   	retq   

00000000004021d3 <get_time_by_seq>:
  4021d3:	55                   	push   %rbp
  4021d4:	48 89 e5             	mov    %rsp,%rbp
  4021d7:	89 7d ec             	mov    %edi,-0x14(%rbp)
  4021da:	48 89 75 e0          	mov    %rsi,-0x20(%rbp)
  4021de:	48 8b 45 e0          	mov    -0x20(%rbp),%rax
  4021e2:	48 8b 40 08          	mov    0x8(%rax),%rax
  4021e6:	48 89 45 f0          	mov    %rax,-0x10(%rbp)
  4021ea:	eb 2d                	jmp    402219 <get_time_by_seq+0x46>
  4021ec:	48 8b 45 f0          	mov    -0x10(%rbp),%rax
  4021f0:	48 83 e8 10          	sub    $0x10,%rax
  4021f4:	48 89 45 f8          	mov    %rax,-0x8(%rbp)
  4021f8:	48 8b 45 f8          	mov    -0x8(%rbp),%rax
  4021fc:	8b 00                	mov    (%rax),%eax
  4021fe:	3b 45 ec             	cmp    -0x14(%rbp),%eax
  402201:	75 0a                	jne    40220d <get_time_by_seq+0x3a>
  402203:	48 8b 45 f8          	mov    -0x8(%rbp),%rax
  402207:	48 8b 40 08          	mov    0x8(%rax),%rax
  40220b:	eb 1b                	jmp    402228 <get_time_by_seq+0x55>
  40220d:	48 8b 45 f0          	mov    -0x10(%rbp),%rax
  402211:	48 8b 40 08          	mov    0x8(%rax),%rax
  402215:	48 89 45 f0          	mov    %rax,-0x10(%rbp)
  402219:	48 8b 45 f0          	mov    -0x10(%rbp),%rax
  40221d:	48 3b 45 e0          	cmp    -0x20(%rbp),%rax
  402221:	75 c9                	jne    4021ec <get_time_by_seq+0x19>
  402223:	b8 00 00 00 00       	mov    $0x0,%eax
  402228:	48 89 45 d8          	mov    %rax,-0x28(%rbp)
  40222c:	f2 0f 10 45 d8       	movsd  -0x28(%rbp),%xmm0
  402231:	5d                   	pop    %rbp
  402232:	c3                   	retq   

0000000000402233 <delete_before_seq>:
  402233:	55                   	push   %rbp
  402234:	48 89 e5             	mov    %rsp,%rbp
  402237:	48 83 ec 20          	sub    $0x20,%rsp
  40223b:	89 7d ec             	mov    %edi,-0x14(%rbp)
  40223e:	48 89 75 e0          	mov    %rsi,-0x20(%rbp)
  402242:	48 8b 45 e0          	mov    -0x20(%rbp),%rax
  402246:	48 8b 00             	mov    (%rax),%rax
  402249:	48 89 45 f0          	mov    %rax,-0x10(%rbp)
  40224d:	eb 47                	jmp    402296 <delete_before_seq+0x63>
  40224f:	48 8b 45 f0          	mov    -0x10(%rbp),%rax
  402253:	48 83 e8 10          	sub    $0x10,%rax
  402257:	48 89 45 f8          	mov    %rax,-0x8(%rbp)
  40225b:	48 8b 45 f8          	mov    -0x8(%rbp),%rax
  40225f:	8b 00                	mov    (%rax),%eax
  402261:	3b 45 ec             	cmp    -0x14(%rbp),%eax
  402264:	77 18                	ja     40227e <delete_before_seq+0x4b>
  402266:	48 8b 45 f8          	mov    -0x8(%rbp),%rax
  40226a:	48 89 c7             	mov    %rax,%rdi
  40226d:	e8 46 2e 00 00       	callq  4050b8 <my_free>
  402272:	48 8b 45 f0          	mov    -0x10(%rbp),%rax
  402276:	48 89 c7             	mov    %rax,%rdi
  402279:	e8 49 fd ff ff       	callq  401fc7 <list_delete_entry>
  40227e:	48 8b 45 f8          	mov    -0x8(%rbp),%rax
  402282:	8b 00                	mov    (%rax),%eax
  402284:	3b 45 ec             	cmp    -0x14(%rbp),%eax
  402287:	76 02                	jbe    40228b <delete_before_seq+0x58>
  402289:	eb 15                	jmp    4022a0 <delete_before_seq+0x6d>
  40228b:	48 8b 45 f0          	mov    -0x10(%rbp),%rax
  40228f:	48 8b 00             	mov    (%rax),%rax
  402292:	48 89 45 f0          	mov    %rax,-0x10(%rbp)
  402296:	48 8b 45 f0          	mov    -0x10(%rbp),%rax
  40229a:	48 3b 45 e0          	cmp    -0x20(%rbp),%rax
  40229e:	75 af                	jne    40224f <delete_before_seq+0x1c>
  4022a0:	c9                   	leaveq 
  4022a1:	c3                   	retq   

00000000004022a2 <handle_signal>:
  4022a2:	55                   	push   %rbp
  4022a3:	48 89 e5             	mov    %rsp,%rbp
  4022a6:	48 83 ec 10          	sub    $0x10,%rsp
  4022aa:	89 7d fc             	mov    %edi,-0x4(%rbp)
  4022ad:	48 8b 05 6c 5f 20 00 	mov    0x205f6c(%rip),%rax        # 608220 <__TMC_END__>
  4022b4:	8b 55 fc             	mov    -0x4(%rbp),%edx
  4022b7:	be 50 5d 40 00       	mov    $0x405d50,%esi
  4022bc:	48 89 c7             	mov    %rax,%rdi
  4022bf:	b8 00 00 00 00       	mov    $0x0,%eax
  4022c4:	e8 f7 eb ff ff       	callq  400ec0 <fprintf@plt>
  4022c9:	b8 00 00 00 00       	mov    $0x0,%eax
  4022ce:	e8 16 01 00 00       	callq  4023e9 <cleanup>
  4022d3:	48 8b 05 46 5f 20 00 	mov    0x205f46(%rip),%rax        # 608220 <__TMC_END__>
  4022da:	48 89 c1             	mov    %rax,%rcx
  4022dd:	ba 0a 00 00 00       	mov    $0xa,%edx
  4022e2:	be 01 00 00 00       	mov    $0x1,%esi
  4022e7:	bf 6e 5d 40 00       	mov    $0x405d6e,%edi
  4022ec:	e8 9f ec ff ff       	callq  400f90 <fwrite@plt>
  4022f1:	bf 00 00 00 00       	mov    $0x0,%edi
  4022f6:	e8 85 ec ff ff       	callq  400f80 <exit@plt>

00000000004022fb <register_signal>:
  4022fb:	55                   	push   %rbp
  4022fc:	48 89 e5             	mov    %rsp,%rbp
  4022ff:	be a2 22 40 00       	mov    $0x4022a2,%esi
  402304:	bf 02 00 00 00       	mov    $0x2,%edi
  402309:	e8 92 eb ff ff       	callq  400ea0 <signal@plt>
  40230e:	48 83 f8 ff          	cmp    $0xffffffffffffffff,%rax
  402312:	75 28                	jne    40233c <register_signal+0x41>
  402314:	48 8b 05 15 5f 20 00 	mov    0x205f15(%rip),%rax        # 608230 <stderr@@GLIBC_2.2.5>
  40231b:	ba 79 5d 40 00       	mov    $0x405d79,%edx
  402320:	be 80 5d 40 00       	mov    $0x405d80,%esi
  402325:	48 89 c7             	mov    %rax,%rdi
  402328:	b8 00 00 00 00       	mov    $0x0,%eax
  40232d:	e8 8e eb ff ff       	callq  400ec0 <fprintf@plt>
  402332:	bf 01 00 00 00       	mov    $0x1,%edi
  402337:	e8 44 ec ff ff       	callq  400f80 <exit@plt>
  40233c:	be a2 22 40 00       	mov    $0x4022a2,%esi
  402341:	bf 0f 00 00 00       	mov    $0xf,%edi
  402346:	e8 55 eb ff ff       	callq  400ea0 <signal@plt>
  40234b:	48 83 f8 ff          	cmp    $0xffffffffffffffff,%rax
  40234f:	75 28                	jne    402379 <register_signal+0x7e>
  402351:	48 8b 05 d8 5e 20 00 	mov    0x205ed8(%rip),%rax        # 608230 <stderr@@GLIBC_2.2.5>
  402358:	ba 79 5d 40 00       	mov    $0x405d79,%edx
  40235d:	be 80 5d 40 00       	mov    $0x405d80,%esi
  402362:	48 89 c7             	mov    %rax,%rdi
  402365:	b8 00 00 00 00       	mov    $0x0,%eax
  40236a:	e8 51 eb ff ff       	callq  400ec0 <fprintf@plt>
  40236f:	bf 01 00 00 00       	mov    $0x1,%edi
  402374:	e8 07 ec ff ff       	callq  400f80 <exit@plt>
  402379:	5d                   	pop    %rbp
  40237a:	c3                   	retq   

000000000040237b <init>:
  40237b:	55                   	push   %rbp
  40237c:	48 89 e5             	mov    %rsp,%rbp
  40237f:	b8 00 00 00 00       	mov    $0x0,%eax
  402384:	e8 5a ee ff ff       	callq  4011e3 <pcap_init>
  402389:	48 89 05 38 64 20 00 	mov    %rax,0x206438(%rip)        # 6087c8 <pcap_handle>
  402390:	be d0 87 60 00       	mov    $0x6087d0,%esi
  402395:	bf 40 87 60 00       	mov    $0x608740,%edi
  40239a:	e8 51 eb ff ff       	callq  400ef0 <inet_aton@plt>
  40239f:	83 f8 01             	cmp    $0x1,%eax
  4023a2:	74 28                	je     4023cc <init+0x51>
  4023a4:	48 8b 05 85 5e 20 00 	mov    0x205e85(%rip),%rax        # 608230 <stderr@@GLIBC_2.2.5>
  4023ab:	ba 79 5d 40 00       	mov    $0x405d79,%edx
  4023b0:	be a8 5d 40 00       	mov    $0x405da8,%esi
  4023b5:	48 89 c7             	mov    %rax,%rdi
  4023b8:	b8 00 00 00 00       	mov    $0x0,%eax
  4023bd:	e8 fe ea ff ff       	callq  400ec0 <fprintf@plt>
  4023c2:	bf 01 00 00 00       	mov    $0x1,%edi
  4023c7:	e8 b4 eb ff ff       	callq  400f80 <exit@plt>
  4023cc:	b8 00 00 00 00       	mov    $0x0,%eax
  4023d1:	e8 25 ff ff ff       	callq  4022fb <register_signal>
  4023d6:	b8 00 00 00 00       	mov    $0x0,%eax
  4023db:	e8 c3 09 00 00       	callq  402da3 <new_hash_table>
  4023e0:	48 89 05 d9 63 20 00 	mov    %rax,0x2063d9(%rip)        # 6087c0 <hash_table>
  4023e7:	5d                   	pop    %rbp
  4023e8:	c3                   	retq   

00000000004023e9 <cleanup>:
  4023e9:	55                   	push   %rbp
  4023ea:	48 89 e5             	mov    %rsp,%rbp
  4023ed:	48 8b 05 d4 63 20 00 	mov    0x2063d4(%rip),%rax        # 6087c8 <pcap_handle>
  4023f4:	48 89 c7             	mov    %rax,%rdi
  4023f7:	b8 00 00 00 00       	mov    $0x0,%eax
  4023fc:	e8 3c f1 ff ff       	callq  40153d <pcap_cleanup>
  402401:	48 8b 05 b8 63 20 00 	mov    0x2063b8(%rip),%rax        # 6087c0 <hash_table>
  402408:	48 89 c7             	mov    %rax,%rdi
  40240b:	e8 1c 0c 00 00       	callq  40302c <cleanup_hash_table>
  402410:	5d                   	pop    %rbp
  402411:	c3                   	retq   

0000000000402412 <parse_tcp_info>:
  402412:	55                   	push   %rbp
  402413:	48 89 e5             	mov    %rsp,%rbp
  402416:	48 83 ec 40          	sub    $0x40,%rsp
  40241a:	48 89 7d e8          	mov    %rdi,-0x18(%rbp)
  40241e:	f2 0f 11 45 e0       	movsd  %xmm0,-0x20(%rbp)
  402423:	48 89 75 d8          	mov    %rsi,-0x28(%rbp)
  402427:	89 55 d4             	mov    %edx,-0x2c(%rbp)
  40242a:	89 4d d0             	mov    %ecx,-0x30(%rbp)
  40242d:	48 8b 05 8c 63 20 00 	mov    0x20638c(%rip),%rax        # 6087c0 <hash_table>
  402434:	48 8b 55 e8          	mov    -0x18(%rbp),%rdx
  402438:	48 89 d6             	mov    %rdx,%rsi
  40243b:	48 89 c7             	mov    %rax,%rdi
  40243e:	e8 c7 09 00 00       	callq  402e0a <find_ts_entry>
  402443:	48 89 45 f8          	mov    %rax,-0x8(%rbp)
  402447:	48 83 7d f8 00       	cmpq   $0x0,-0x8(%rbp)
  40244c:	75 48                	jne    402496 <parse_tcp_info+0x84>
  40244e:	48 8b 45 d8          	mov    -0x28(%rbp),%rax
  402452:	0f b6 40 0d          	movzbl 0xd(%rax),%eax
  402456:	83 e0 02             	and    $0x2,%eax
  402459:	84 c0                	test   %al,%al
  40245b:	74 39                	je     402496 <parse_tcp_info+0x84>
  40245d:	83 7d d0 01          	cmpl   $0x1,-0x30(%rbp)
  402461:	75 33                	jne    402496 <parse_tcp_info+0x84>
  402463:	48 8b 45 e0          	mov    -0x20(%rbp),%rax
  402467:	48 8b 55 e8          	mov    -0x18(%rbp),%rdx
  40246b:	48 89 45 c8          	mov    %rax,-0x38(%rbp)
  40246f:	f2 0f 10 45 c8       	movsd  -0x38(%rbp),%xmm0
  402474:	48 89 d7             	mov    %rdx,%rdi
  402477:	e8 56 12 00 00       	callq  4036d2 <new_tcp_state>
  40247c:	48 89 45 f8          	mov    %rax,-0x8(%rbp)
  402480:	48 8b 05 39 63 20 00 	mov    0x206339(%rip),%rax        # 6087c0 <hash_table>
  402487:	48 8b 55 f8          	mov    -0x8(%rbp),%rdx
  40248b:	48 89 d6             	mov    %rdx,%rsi
  40248e:	48 89 c7             	mov    %rax,%rdi
  402491:	e8 ec 09 00 00       	callq  402e82 <insert_ts_entry>
  402496:	48 83 7d f8 00       	cmpq   $0x0,-0x8(%rbp)
  40249b:	74 54                	je     4024f1 <parse_tcp_info+0xdf>
  40249d:	8b 4d d0             	mov    -0x30(%rbp),%ecx
  4024a0:	48 8b 45 e0          	mov    -0x20(%rbp),%rax
  4024a4:	8b 55 d4             	mov    -0x2c(%rbp),%edx
  4024a7:	48 8b 75 d8          	mov    -0x28(%rbp),%rsi
  4024ab:	48 8b 7d f8          	mov    -0x8(%rbp),%rdi
  4024af:	48 89 45 c8          	mov    %rax,-0x38(%rbp)
  4024b3:	f2 0f 10 45 c8       	movsd  -0x38(%rbp),%xmm0
  4024b8:	e8 a6 1f 00 00       	callq  404463 <tcp_state_machine>
  4024bd:	48 8b 45 f8          	mov    -0x8(%rbp),%rax
  4024c1:	8b 80 90 00 00 00    	mov    0x90(%rax),%eax
  4024c7:	83 f8 07             	cmp    $0x7,%eax
  4024ca:	74 0f                	je     4024db <parse_tcp_info+0xc9>
  4024cc:	48 8b 45 f8          	mov    -0x8(%rbp),%rax
  4024d0:	8b 80 90 00 00 00    	mov    0x90(%rax),%eax
  4024d6:	83 f8 0b             	cmp    $0xb,%eax
  4024d9:	75 16                	jne    4024f1 <parse_tcp_info+0xdf>
  4024db:	48 8b 05 de 62 20 00 	mov    0x2062de(%rip),%rax        # 6087c0 <hash_table>
  4024e2:	48 8b 55 f8          	mov    -0x8(%rbp),%rdx
  4024e6:	48 89 d6             	mov    %rdx,%rsi
  4024e9:	48 89 c7             	mov    %rax,%rdi
  4024ec:	e8 12 0a 00 00       	callq  402f03 <delete_ts_entry>
  4024f1:	c9                   	leaveq 
  4024f2:	c3                   	retq   

00000000004024f3 <handle_pcap>:
  4024f3:	55                   	push   %rbp
  4024f4:	48 89 e5             	mov    %rsp,%rbp
  4024f7:	48 83 c4 80          	add    $0xffffffffffffff80,%rsp
  4024fb:	e9 d3 01 00 00       	jmpq   4026d3 <handle_pcap+0x1e0>
  402500:	8b 05 5a 5d 20 00    	mov    0x205d5a(%rip),%eax        # 608260 <pkt_counter>
  402506:	83 c0 01             	add    $0x1,%eax
  402509:	89 05 51 5d 20 00    	mov    %eax,0x205d51(%rip)        # 608260 <pkt_counter>
  40250f:	8b 05 0b 62 20 00    	mov    0x20620b(%rip),%eax        # 608720 <pcap_limit>
  402515:	85 c0                	test   %eax,%eax
  402517:	7e 38                	jle    402551 <handle_pcap+0x5e>
  402519:	8b 15 41 5d 20 00    	mov    0x205d41(%rip),%edx        # 608260 <pkt_counter>
  40251f:	8b 05 fb 61 20 00    	mov    0x2061fb(%rip),%eax        # 608720 <pcap_limit>
  402525:	39 c2                	cmp    %eax,%edx
  402527:	7c 28                	jl     402551 <handle_pcap+0x5e>
  402529:	48 8b 05 f0 5c 20 00 	mov    0x205cf0(%rip),%rax        # 608220 <__TMC_END__>
  402530:	ba d4 5d 40 00       	mov    $0x405dd4,%edx
  402535:	be d9 5d 40 00       	mov    $0x405dd9,%esi
  40253a:	48 89 c7             	mov    %rax,%rdi
  40253d:	b8 00 00 00 00       	mov    $0x0,%eax
  402542:	e8 79 e9 ff ff       	callq  400ec0 <fprintf@plt>
  402547:	bf 00 00 00 00       	mov    $0x0,%edi
  40254c:	e8 2f ea ff ff       	callq  400f80 <exit@plt>
  402551:	48 8b 45 e0          	mov    -0x20(%rbp),%rax
  402555:	f2 48 0f 2a c8       	cvtsi2sd %rax,%xmm1
  40255a:	48 8b 45 e8          	mov    -0x18(%rbp),%rax
  40255e:	f2 48 0f 2a c0       	cvtsi2sd %rax,%xmm0
  402563:	f2 0f 10 15 c5 38 00 	movsd  0x38c5(%rip),%xmm2        # 405e30 <_IO_stdin_used+0x500>
  40256a:	00 
  40256b:	f2 0f 5e c2          	divsd  %xmm2,%xmm0
  40256f:	f2 0f 58 c1          	addsd  %xmm1,%xmm0
  402573:	f2 0f 11 45 b8       	movsd  %xmm0,-0x48(%rbp)
  402578:	8b 45 f0             	mov    -0x10(%rbp),%eax
  40257b:	89 45 9c             	mov    %eax,-0x64(%rbp)
  40257e:	48 8d 55 9c          	lea    -0x64(%rbp),%rdx
  402582:	48 8b 45 b0          	mov    -0x50(%rbp),%rax
  402586:	48 89 d6             	mov    %rdx,%rsi
  402589:	48 89 c7             	mov    %rax,%rdi
  40258c:	e8 e2 ee ff ff       	callq  401473 <get_ip_hdr>
  402591:	48 89 45 c0          	mov    %rax,-0x40(%rbp)
  402595:	48 83 7d c0 00       	cmpq   $0x0,-0x40(%rbp)
  40259a:	75 05                	jne    4025a1 <handle_pcap+0xae>
  40259c:	e9 32 01 00 00       	jmpq   4026d3 <handle_pcap+0x1e0>
  4025a1:	48 8b 45 c0          	mov    -0x40(%rbp),%rax
  4025a5:	0f b6 00             	movzbl (%rax),%eax
  4025a8:	83 e0 0f             	and    $0xf,%eax
  4025ab:	0f b6 c0             	movzbl %al,%eax
  4025ae:	c1 e0 02             	shl    $0x2,%eax
  4025b1:	48 63 d0             	movslq %eax,%rdx
  4025b4:	48 8b 45 c0          	mov    -0x40(%rbp),%rax
  4025b8:	48 01 d0             	add    %rdx,%rax
  4025bb:	48 89 45 c8          	mov    %rax,-0x38(%rbp)
  4025bf:	48 8b 45 c0          	mov    -0x40(%rbp),%rax
  4025c3:	0f b6 00             	movzbl (%rax),%eax
  4025c6:	83 e0 0f             	and    $0xf,%eax
  4025c9:	0f b6 c0             	movzbl %al,%eax
  4025cc:	c1 e0 02             	shl    $0x2,%eax
  4025cf:	89 45 a4             	mov    %eax,-0x5c(%rbp)
  4025d2:	48 8b 45 c8          	mov    -0x38(%rbp),%rax
  4025d6:	0f b6 40 0c          	movzbl 0xc(%rax),%eax
  4025da:	c0 e8 04             	shr    $0x4,%al
  4025dd:	0f b6 c0             	movzbl %al,%eax
  4025e0:	c1 e0 02             	shl    $0x2,%eax
  4025e3:	89 45 a8             	mov    %eax,-0x58(%rbp)
  4025e6:	8b 45 9c             	mov    -0x64(%rbp),%eax
  4025e9:	39 45 a8             	cmp    %eax,-0x58(%rbp)
  4025ec:	7e 23                	jle    402611 <handle_pcap+0x11e>
  4025ee:	48 8b 05 3b 5c 20 00 	mov    0x205c3b(%rip),%rax        # 608230 <stderr@@GLIBC_2.2.5>
  4025f5:	ba ea 5d 40 00       	mov    $0x405dea,%edx
  4025fa:	be f0 5d 40 00       	mov    $0x405df0,%esi
  4025ff:	48 89 c7             	mov    %rax,%rdi
  402602:	b8 00 00 00 00       	mov    $0x0,%eax
  402607:	e8 b4 e8 ff ff       	callq  400ec0 <fprintf@plt>
  40260c:	e9 c2 00 00 00       	jmpq   4026d3 <handle_pcap+0x1e0>
  402611:	48 8b 45 c0          	mov    -0x40(%rbp),%rax
  402615:	48 83 c0 0c          	add    $0xc,%rax
  402619:	ba 04 00 00 00       	mov    $0x4,%edx
  40261e:	be d0 87 60 00       	mov    $0x6087d0,%esi
  402623:	48 89 c7             	mov    %rax,%rdi
  402626:	e8 55 e8 ff ff       	callq  400e80 <memcmp@plt>
  40262b:	85 c0                	test   %eax,%eax
  40262d:	75 34                	jne    402663 <handle_pcap+0x170>
  40262f:	48 8b 45 c0          	mov    -0x40(%rbp),%rax
  402633:	8b 40 0c             	mov    0xc(%rax),%eax
  402636:	89 45 d0             	mov    %eax,-0x30(%rbp)
  402639:	48 8b 45 c0          	mov    -0x40(%rbp),%rax
  40263d:	8b 40 10             	mov    0x10(%rax),%eax
  402640:	89 45 d4             	mov    %eax,-0x2c(%rbp)
  402643:	48 8b 45 c8          	mov    -0x38(%rbp),%rax
  402647:	0f b7 00             	movzwl (%rax),%eax
  40264a:	66 89 45 d8          	mov    %ax,-0x28(%rbp)
  40264e:	48 8b 45 c8          	mov    -0x38(%rbp),%rax
  402652:	0f b7 40 02          	movzwl 0x2(%rax),%eax
  402656:	66 89 45 da          	mov    %ax,-0x26(%rbp)
  40265a:	c7 45 a0 02 00 00 00 	movl   $0x2,-0x60(%rbp)
  402661:	eb 32                	jmp    402695 <handle_pcap+0x1a2>
  402663:	48 8b 45 c0          	mov    -0x40(%rbp),%rax
  402667:	8b 40 10             	mov    0x10(%rax),%eax
  40266a:	89 45 d0             	mov    %eax,-0x30(%rbp)
  40266d:	48 8b 45 c0          	mov    -0x40(%rbp),%rax
  402671:	8b 40 0c             	mov    0xc(%rax),%eax
  402674:	89 45 d4             	mov    %eax,-0x2c(%rbp)
  402677:	48 8b 45 c8          	mov    -0x38(%rbp),%rax
  40267b:	0f b7 40 02          	movzwl 0x2(%rax),%eax
  40267f:	66 89 45 d8          	mov    %ax,-0x28(%rbp)
  402683:	48 8b 45 c8          	mov    -0x38(%rbp),%rax
  402687:	0f b7 00             	movzwl (%rax),%eax
  40268a:	66 89 45 da          	mov    %ax,-0x26(%rbp)
  40268e:	c7 45 a0 01 00 00 00 	movl   $0x1,-0x60(%rbp)
  402695:	48 8b 45 c0          	mov    -0x40(%rbp),%rax
  402699:	0f b7 40 02          	movzwl 0x2(%rax),%eax
  40269d:	0f b7 c0             	movzwl %ax,%eax
  4026a0:	89 c7                	mov    %eax,%edi
  4026a2:	e8 99 e8 ff ff       	callq  400f40 <ntohs@plt>
  4026a7:	0f b7 c0             	movzwl %ax,%eax
  4026aa:	2b 45 a4             	sub    -0x5c(%rbp),%eax
  4026ad:	2b 45 a8             	sub    -0x58(%rbp),%eax
  4026b0:	89 45 ac             	mov    %eax,-0x54(%rbp)
  4026b3:	8b 4d a0             	mov    -0x60(%rbp),%ecx
  4026b6:	8b 55 ac             	mov    -0x54(%rbp),%edx
  4026b9:	48 8b 75 c8          	mov    -0x38(%rbp),%rsi
  4026bd:	48 8b 45 b8          	mov    -0x48(%rbp),%rax
  4026c1:	48 8d 7d d0          	lea    -0x30(%rbp),%rdi
  4026c5:	48 89 45 88          	mov    %rax,-0x78(%rbp)
  4026c9:	f2 0f 10 45 88       	movsd  -0x78(%rbp),%xmm0
  4026ce:	e8 3f fd ff ff       	callq  402412 <parse_tcp_info>
  4026d3:	48 8b 05 ee 60 20 00 	mov    0x2060ee(%rip),%rax        # 6087c8 <pcap_handle>
  4026da:	48 8d 55 e0          	lea    -0x20(%rbp),%rdx
  4026de:	48 89 d6             	mov    %rdx,%rsi
  4026e1:	48 89 c7             	mov    %rax,%rdi
  4026e4:	e8 e7 e6 ff ff       	callq  400dd0 <pcap_next@plt>
  4026e9:	48 89 45 b0          	mov    %rax,-0x50(%rbp)
  4026ed:	48 83 7d b0 00       	cmpq   $0x0,-0x50(%rbp)
  4026f2:	0f 85 08 fe ff ff    	jne    402500 <handle_pcap+0xd>
  4026f8:	c9                   	leaveq 
  4026f9:	c3                   	retq   

00000000004026fa <main>:
  4026fa:	55                   	push   %rbp
  4026fb:	48 89 e5             	mov    %rsp,%rbp
  4026fe:	48 83 ec 40          	sub    $0x40,%rsp
  402702:	89 7d cc             	mov    %edi,-0x34(%rbp)
  402705:	48 89 75 c0          	mov    %rsi,-0x40(%rbp)
  402709:	48 8d 45 e0          	lea    -0x20(%rbp),%rax
  40270d:	be 00 00 00 00       	mov    $0x0,%esi
  402712:	48 89 c7             	mov    %rax,%rdi
  402715:	e8 06 e7 ff ff       	callq  400e20 <gettimeofday@plt>
  40271a:	48 8b 45 e0          	mov    -0x20(%rbp),%rax
  40271e:	48 69 d0 40 42 0f 00 	imul   $0xf4240,%rax,%rdx
  402725:	48 8b 45 e8          	mov    -0x18(%rbp),%rax
  402729:	48 01 d0             	add    %rdx,%rax
  40272c:	48 89 45 d0          	mov    %rax,-0x30(%rbp)
  402730:	48 8b 55 c0          	mov    -0x40(%rbp),%rdx
  402734:	8b 45 cc             	mov    -0x34(%rbp),%eax
  402737:	48 89 d6             	mov    %rdx,%rsi
  40273a:	89 c7                	mov    %eax,%edi
  40273c:	e8 24 0d 00 00       	callq  403465 <parse_cmd_options>
  402741:	b8 00 00 00 00       	mov    $0x0,%eax
  402746:	e8 30 fc ff ff       	callq  40237b <init>
  40274b:	b8 00 00 00 00       	mov    $0x0,%eax
  402750:	e8 9e fd ff ff       	callq  4024f3 <handle_pcap>
  402755:	b8 00 00 00 00       	mov    $0x0,%eax
  40275a:	e8 8a fc ff ff       	callq  4023e9 <cleanup>
  40275f:	48 8d 45 f0          	lea    -0x10(%rbp),%rax
  402763:	be 00 00 00 00       	mov    $0x0,%esi
  402768:	48 89 c7             	mov    %rax,%rdi
  40276b:	e8 b0 e6 ff ff       	callq  400e20 <gettimeofday@plt>
  402770:	48 8b 45 f0          	mov    -0x10(%rbp),%rax
  402774:	48 69 d0 40 42 0f 00 	imul   $0xf4240,%rax,%rdx
  40277b:	48 8b 45 f8          	mov    -0x8(%rbp),%rax
  40277f:	48 01 d0             	add    %rdx,%rax
  402782:	48 89 45 d8          	mov    %rax,-0x28(%rbp)
  402786:	48 8b 45 d0          	mov    -0x30(%rbp),%rax
  40278a:	48 8b 55 d8          	mov    -0x28(%rbp),%rdx
  40278e:	48 29 c2             	sub    %rax,%rdx
  402791:	48 89 d0             	mov    %rdx,%rax
  402794:	48 85 c0             	test   %rax,%rax
  402797:	78 07                	js     4027a0 <main+0xa6>
  402799:	f2 48 0f 2a c0       	cvtsi2sd %rax,%xmm0
  40279e:	eb 15                	jmp    4027b5 <main+0xbb>
  4027a0:	48 89 c2             	mov    %rax,%rdx
  4027a3:	48 d1 ea             	shr    %rdx
  4027a6:	83 e0 01             	and    $0x1,%eax
  4027a9:	48 09 c2             	or     %rax,%rdx
  4027ac:	f2 48 0f 2a c2       	cvtsi2sd %rdx,%xmm0
  4027b1:	f2 0f 58 c0          	addsd  %xmm0,%xmm0
  4027b5:	f2 0f 10 0d 73 36 00 	movsd  0x3673(%rip),%xmm1        # 405e30 <_IO_stdin_used+0x500>
  4027bc:	00 
  4027bd:	f2 0f 5e c1          	divsd  %xmm1,%xmm0
  4027c1:	48 8b 05 58 5a 20 00 	mov    0x205a58(%rip),%rax        # 608220 <__TMC_END__>
  4027c8:	be 1c 5e 40 00       	mov    $0x405e1c,%esi
  4027cd:	48 89 c7             	mov    %rax,%rdi
  4027d0:	b8 01 00 00 00       	mov    $0x1,%eax
  4027d5:	e8 e6 e6 ff ff       	callq  400ec0 <fprintf@plt>
  4027da:	b8 00 00 00 00       	mov    $0x0,%eax
  4027df:	c9                   	leaveq 
  4027e0:	c3                   	retq   

00000000004027e1 <list_insert>:
  4027e1:	55                   	push   %rbp
  4027e2:	48 89 e5             	mov    %rsp,%rbp
  4027e5:	48 89 7d f8          	mov    %rdi,-0x8(%rbp)
  4027e9:	48 89 75 f0          	mov    %rsi,-0x10(%rbp)
  4027ed:	48 89 55 e8          	mov    %rdx,-0x18(%rbp)
  4027f1:	48 8b 45 e8          	mov    -0x18(%rbp),%rax
  4027f5:	48 8b 55 f8          	mov    -0x8(%rbp),%rdx
  4027f9:	48 89 50 08          	mov    %rdx,0x8(%rax)
  4027fd:	48 8b 45 f0          	mov    -0x10(%rbp),%rax
  402801:	48 8b 55 f8          	mov    -0x8(%rbp),%rdx
  402805:	48 89 10             	mov    %rdx,(%rax)
  402808:	48 8b 45 f8          	mov    -0x8(%rbp),%rax
  40280c:	48 8b 55 e8          	mov    -0x18(%rbp),%rdx
  402810:	48 89 10             	mov    %rdx,(%rax)
  402813:	48 8b 45 f8          	mov    -0x8(%rbp),%rax
  402817:	48 8b 55 f0          	mov    -0x10(%rbp),%rdx
  40281b:	48 89 50 08          	mov    %rdx,0x8(%rax)
  40281f:	5d                   	pop    %rbp
  402820:	c3                   	retq   

0000000000402821 <list_delete_entry>:
  402821:	55                   	push   %rbp
  402822:	48 89 e5             	mov    %rsp,%rbp
  402825:	48 89 7d f8          	mov    %rdi,-0x8(%rbp)
  402829:	48 8b 45 f8          	mov    -0x8(%rbp),%rax
  40282d:	48 8b 00             	mov    (%rax),%rax
  402830:	48 8b 55 f8          	mov    -0x8(%rbp),%rdx
  402834:	48 8b 52 08          	mov    0x8(%rdx),%rdx
  402838:	48 89 50 08          	mov    %rdx,0x8(%rax)
  40283c:	48 8b 45 f8          	mov    -0x8(%rbp),%rax
  402840:	48 8b 40 08          	mov    0x8(%rax),%rax
  402844:	48 8b 55 f8          	mov    -0x8(%rbp),%rdx
  402848:	48 8b 12             	mov    (%rdx),%rdx
  40284b:	48 89 10             	mov    %rdx,(%rax)
  40284e:	5d                   	pop    %rbp
  40284f:	c3                   	retq   

0000000000402850 <list_add_tail>:
  402850:	55                   	push   %rbp
  402851:	48 89 e5             	mov    %rsp,%rbp
  402854:	48 83 ec 10          	sub    $0x10,%rsp
  402858:	48 89 7d f8          	mov    %rdi,-0x8(%rbp)
  40285c:	48 89 75 f0          	mov    %rsi,-0x10(%rbp)
  402860:	48 8b 45 f0          	mov    -0x10(%rbp),%rax
  402864:	48 8b 48 08          	mov    0x8(%rax),%rcx
  402868:	48 8b 55 f0          	mov    -0x10(%rbp),%rdx
  40286c:	48 8b 45 f8          	mov    -0x8(%rbp),%rax
  402870:	48 89 ce             	mov    %rcx,%rsi
  402873:	48 89 c7             	mov    %rax,%rdi
  402876:	e8 66 ff ff ff       	callq  4027e1 <list_insert>
  40287b:	c9                   	leaveq 
  40287c:	c3                   	retq   

000000000040287d <before>:
  40287d:	55                   	push   %rbp
  40287e:	48 89 e5             	mov    %rsp,%rbp
  402881:	89 7d fc             	mov    %edi,-0x4(%rbp)
  402884:	89 75 f8             	mov    %esi,-0x8(%rbp)
  402887:	8b 45 f8             	mov    -0x8(%rbp),%eax
  40288a:	8b 55 fc             	mov    -0x4(%rbp),%edx
  40288d:	29 c2                	sub    %eax,%edx
  40288f:	89 d0                	mov    %edx,%eax
  402891:	c1 e8 1f             	shr    $0x1f,%eax
  402894:	0f b6 c0             	movzbl %al,%eax
  402897:	5d                   	pop    %rbp
  402898:	c3                   	retq   

0000000000402899 <between>:
  402899:	55                   	push   %rbp
  40289a:	48 89 e5             	mov    %rsp,%rbp
  40289d:	89 7d fc             	mov    %edi,-0x4(%rbp)
  4028a0:	89 75 f8             	mov    %esi,-0x8(%rbp)
  4028a3:	89 55 f4             	mov    %edx,-0xc(%rbp)
  4028a6:	8b 45 f8             	mov    -0x8(%rbp),%eax
  4028a9:	8b 55 f4             	mov    -0xc(%rbp),%edx
  4028ac:	89 d1                	mov    %edx,%ecx
  4028ae:	29 c1                	sub    %eax,%ecx
  4028b0:	8b 45 f8             	mov    -0x8(%rbp),%eax
  4028b3:	8b 55 fc             	mov    -0x4(%rbp),%edx
  4028b6:	29 c2                	sub    %eax,%edx
  4028b8:	89 d0                	mov    %edx,%eax
  4028ba:	39 c1                	cmp    %eax,%ecx
  4028bc:	0f 97 c0             	seta   %al
  4028bf:	0f b6 c0             	movzbl %al,%eax
  4028c2:	5d                   	pop    %rbp
  4028c3:	c3                   	retq   

00000000004028c4 <append_to_range_list>:
  4028c4:	55                   	push   %rbp
  4028c5:	48 89 e5             	mov    %rsp,%rbp
  4028c8:	48 83 ec 20          	sub    $0x20,%rsp
  4028cc:	48 89 7d e8          	mov    %rdi,-0x18(%rbp)
  4028d0:	89 75 e4             	mov    %esi,-0x1c(%rbp)
  4028d3:	89 55 e0             	mov    %edx,-0x20(%rbp)
  4028d6:	bf 18 00 00 00       	mov    $0x18,%edi
  4028db:	e8 81 27 00 00       	callq  405061 <my_malloc>
  4028e0:	48 89 45 f0          	mov    %rax,-0x10(%rbp)
  4028e4:	48 8b 45 f0          	mov    -0x10(%rbp),%rax
  4028e8:	48 89 45 f8          	mov    %rax,-0x8(%rbp)
  4028ec:	48 8b 45 f8          	mov    -0x8(%rbp),%rax
  4028f0:	8b 55 e4             	mov    -0x1c(%rbp),%edx
  4028f3:	89 10                	mov    %edx,(%rax)
  4028f5:	48 8b 45 f8          	mov    -0x8(%rbp),%rax
  4028f9:	8b 55 e0             	mov    -0x20(%rbp),%edx
  4028fc:	89 50 04             	mov    %edx,0x4(%rax)
  4028ff:	48 8b 45 f8          	mov    -0x8(%rbp),%rax
  402903:	48 8d 50 08          	lea    0x8(%rax),%rdx
  402907:	48 8b 45 e8          	mov    -0x18(%rbp),%rax
  40290b:	48 89 c6             	mov    %rax,%rsi
  40290e:	48 89 d7             	mov    %rdx,%rdi
  402911:	e8 3a ff ff ff       	callq  402850 <list_add_tail>
  402916:	c9                   	leaveq 
  402917:	c3                   	retq   

0000000000402918 <list_size>:
  402918:	55                   	push   %rbp
  402919:	48 89 e5             	mov    %rsp,%rbp
  40291c:	48 89 7d d8          	mov    %rdi,-0x28(%rbp)
  402920:	c7 45 ec 00 00 00 00 	movl   $0x0,-0x14(%rbp)
  402927:	48 8b 45 d8          	mov    -0x28(%rbp),%rax
  40292b:	48 8b 00             	mov    (%rax),%rax
  40292e:	48 89 45 f0          	mov    %rax,-0x10(%rbp)
  402932:	eb 2b                	jmp    40295f <list_size+0x47>
  402934:	48 8b 45 f0          	mov    -0x10(%rbp),%rax
  402938:	48 83 e8 08          	sub    $0x8,%rax
  40293c:	48 89 45 f8          	mov    %rax,-0x8(%rbp)
  402940:	48 8b 45 f8          	mov    -0x8(%rbp),%rax
  402944:	8b 50 04             	mov    0x4(%rax),%edx
  402947:	48 8b 45 f8          	mov    -0x8(%rbp),%rax
  40294b:	8b 00                	mov    (%rax),%eax
  40294d:	29 c2                	sub    %eax,%edx
  40294f:	89 d0                	mov    %edx,%eax
  402951:	01 45 ec             	add    %eax,-0x14(%rbp)
  402954:	48 8b 45 f0          	mov    -0x10(%rbp),%rax
  402958:	48 8b 00             	mov    (%rax),%rax
  40295b:	48 89 45 f0          	mov    %rax,-0x10(%rbp)
  40295f:	48 8b 45 f0          	mov    -0x10(%rbp),%rax
  402963:	48 3b 45 d8          	cmp    -0x28(%rbp),%rax
  402967:	75 cb                	jne    402934 <list_size+0x1c>
  402969:	8b 45 ec             	mov    -0x14(%rbp),%eax
  40296c:	5d                   	pop    %rbp
  40296d:	c3                   	retq   

000000000040296e <list_range_size>:
  40296e:	55                   	push   %rbp
  40296f:	48 89 e5             	mov    %rsp,%rbp
  402972:	53                   	push   %rbx
  402973:	48 83 ec 30          	sub    $0x30,%rsp
  402977:	48 89 7d d0          	mov    %rdi,-0x30(%rbp)
  40297b:	89 75 cc             	mov    %esi,-0x34(%rbp)
  40297e:	89 55 c8             	mov    %edx,-0x38(%rbp)
  402981:	c7 45 e4 00 00 00 00 	movl   $0x0,-0x1c(%rbp)
  402988:	48 8b 45 d0          	mov    -0x30(%rbp),%rax
  40298c:	48 8b 00             	mov    (%rax),%rax
  40298f:	48 89 45 e8          	mov    %rax,-0x18(%rbp)
  402993:	e9 91 00 00 00       	jmpq   402a29 <list_range_size+0xbb>
  402998:	48 8b 45 e8          	mov    -0x18(%rbp),%rax
  40299c:	48 83 e8 08          	sub    $0x8,%rax
  4029a0:	48 89 45 f0          	mov    %rax,-0x10(%rbp)
  4029a4:	48 8b 45 f0          	mov    -0x10(%rbp),%rax
  4029a8:	8b 00                	mov    (%rax),%eax
  4029aa:	8b 55 c8             	mov    -0x38(%rbp),%edx
  4029ad:	89 d6                	mov    %edx,%esi
  4029af:	89 c7                	mov    %eax,%edi
  4029b1:	e8 c7 fe ff ff       	callq  40287d <before>
  4029b6:	85 c0                	test   %eax,%eax
  4029b8:	74 17                	je     4029d1 <list_range_size+0x63>
  4029ba:	48 8b 45 f0          	mov    -0x10(%rbp),%rax
  4029be:	8b 50 04             	mov    0x4(%rax),%edx
  4029c1:	8b 45 cc             	mov    -0x34(%rbp),%eax
  4029c4:	89 d6                	mov    %edx,%esi
  4029c6:	89 c7                	mov    %eax,%edi
  4029c8:	e8 b0 fe ff ff       	callq  40287d <before>
  4029cd:	85 c0                	test   %eax,%eax
  4029cf:	75 02                	jne    4029d3 <list_range_size+0x65>
  4029d1:	eb 4b                	jmp    402a1e <list_range_size+0xb0>
  4029d3:	48 8b 45 f0          	mov    -0x10(%rbp),%rax
  4029d7:	8b 40 04             	mov    0x4(%rax),%eax
  4029da:	8b 55 c8             	mov    -0x38(%rbp),%edx
  4029dd:	89 d6                	mov    %edx,%esi
  4029df:	89 c7                	mov    %eax,%edi
  4029e1:	e8 97 fe ff ff       	callq  40287d <before>
  4029e6:	85 c0                	test   %eax,%eax
  4029e8:	74 09                	je     4029f3 <list_range_size+0x85>
  4029ea:	48 8b 45 f0          	mov    -0x10(%rbp),%rax
  4029ee:	8b 58 04             	mov    0x4(%rax),%ebx
  4029f1:	eb 03                	jmp    4029f6 <list_range_size+0x88>
  4029f3:	8b 5d c8             	mov    -0x38(%rbp),%ebx
  4029f6:	48 8b 45 f0          	mov    -0x10(%rbp),%rax
  4029fa:	8b 00                	mov    (%rax),%eax
  4029fc:	8b 55 cc             	mov    -0x34(%rbp),%edx
  4029ff:	89 d6                	mov    %edx,%esi
  402a01:	89 c7                	mov    %eax,%edi
  402a03:	e8 75 fe ff ff       	callq  40287d <before>
  402a08:	85 c0                	test   %eax,%eax
  402a0a:	75 08                	jne    402a14 <list_range_size+0xa6>
  402a0c:	48 8b 45 f0          	mov    -0x10(%rbp),%rax
  402a10:	8b 00                	mov    (%rax),%eax
  402a12:	eb 03                	jmp    402a17 <list_range_size+0xa9>
  402a14:	8b 45 cc             	mov    -0x34(%rbp),%eax
  402a17:	29 c3                	sub    %eax,%ebx
  402a19:	89 d8                	mov    %ebx,%eax
  402a1b:	01 45 e4             	add    %eax,-0x1c(%rbp)
  402a1e:	48 8b 45 e8          	mov    -0x18(%rbp),%rax
  402a22:	48 8b 00             	mov    (%rax),%rax
  402a25:	48 89 45 e8          	mov    %rax,-0x18(%rbp)
  402a29:	48 8b 45 e8          	mov    -0x18(%rbp),%rax
  402a2d:	48 3b 45 d0          	cmp    -0x30(%rbp),%rax
  402a31:	0f 85 61 ff ff ff    	jne    402998 <list_range_size+0x2a>
  402a37:	8b 45 e4             	mov    -0x1c(%rbp),%eax
  402a3a:	48 83 c4 30          	add    $0x30,%rsp
  402a3e:	5b                   	pop    %rbx
  402a3f:	5d                   	pop    %rbp
  402a40:	c3                   	retq   

0000000000402a41 <in_range_list>:
  402a41:	55                   	push   %rbp
  402a42:	48 89 e5             	mov    %rsp,%rbp
  402a45:	48 83 ec 20          	sub    $0x20,%rsp
  402a49:	89 7d ec             	mov    %edi,-0x14(%rbp)
  402a4c:	48 89 75 e0          	mov    %rsi,-0x20(%rbp)
  402a50:	48 8b 45 e0          	mov    -0x20(%rbp),%rax
  402a54:	48 8b 40 08          	mov    0x8(%rax),%rax
  402a58:	48 89 45 f0          	mov    %rax,-0x10(%rbp)
  402a5c:	eb 59                	jmp    402ab7 <in_range_list+0x76>
  402a5e:	48 8b 45 f0          	mov    -0x10(%rbp),%rax
  402a62:	48 83 e8 08          	sub    $0x8,%rax
  402a66:	48 89 45 f8          	mov    %rax,-0x8(%rbp)
  402a6a:	48 8b 45 f8          	mov    -0x8(%rbp),%rax
  402a6e:	8b 50 04             	mov    0x4(%rax),%edx
  402a71:	48 8b 45 f8          	mov    -0x8(%rbp),%rax
  402a75:	8b 08                	mov    (%rax),%ecx
  402a77:	8b 45 ec             	mov    -0x14(%rbp),%eax
  402a7a:	89 ce                	mov    %ecx,%esi
  402a7c:	89 c7                	mov    %eax,%edi
  402a7e:	e8 16 fe ff ff       	callq  402899 <between>
  402a83:	85 c0                	test   %eax,%eax
  402a85:	74 07                	je     402a8e <in_range_list+0x4d>
  402a87:	b8 01 00 00 00       	mov    $0x1,%eax
  402a8c:	eb 38                	jmp    402ac6 <in_range_list+0x85>
  402a8e:	48 8b 45 f8          	mov    -0x8(%rbp),%rax
  402a92:	8b 10                	mov    (%rax),%edx
  402a94:	8b 45 ec             	mov    -0x14(%rbp),%eax
  402a97:	89 d6                	mov    %edx,%esi
  402a99:	89 c7                	mov    %eax,%edi
  402a9b:	e8 dd fd ff ff       	callq  40287d <before>
  402aa0:	85 c0                	test   %eax,%eax
  402aa2:	74 07                	je     402aab <in_range_list+0x6a>
  402aa4:	b8 00 00 00 00       	mov    $0x0,%eax
  402aa9:	eb 1b                	jmp    402ac6 <in_range_list+0x85>
  402aab:	48 8b 45 f0          	mov    -0x10(%rbp),%rax
  402aaf:	48 8b 40 08          	mov    0x8(%rax),%rax
  402ab3:	48 89 45 f0          	mov    %rax,-0x10(%rbp)
  402ab7:	48 8b 45 f0          	mov    -0x10(%rbp),%rax
  402abb:	48 3b 45 e0          	cmp    -0x20(%rbp),%rax
  402abf:	75 9d                	jne    402a5e <in_range_list+0x1d>
  402ac1:	b8 00 00 00 00       	mov    $0x0,%eax
  402ac6:	c9                   	leaveq 
  402ac7:	c3                   	retq   

0000000000402ac8 <delete_range_list>:
  402ac8:	55                   	push   %rbp
  402ac9:	48 89 e5             	mov    %rsp,%rbp
  402acc:	48 83 ec 20          	sub    $0x20,%rsp
  402ad0:	48 89 7d e8          	mov    %rdi,-0x18(%rbp)
  402ad4:	48 8b 45 e8          	mov    -0x18(%rbp),%rax
  402ad8:	48 8b 00             	mov    (%rax),%rax
  402adb:	48 89 45 f0          	mov    %rax,-0x10(%rbp)
  402adf:	48 c7 45 f8 00 00 00 	movq   $0x0,-0x8(%rbp)
  402ae6:	00 
  402ae7:	eb 2f                	jmp    402b18 <delete_range_list+0x50>
  402ae9:	48 8b 45 f0          	mov    -0x10(%rbp),%rax
  402aed:	48 89 45 f8          	mov    %rax,-0x8(%rbp)
  402af1:	48 8b 45 f0          	mov    -0x10(%rbp),%rax
  402af5:	48 8b 00             	mov    (%rax),%rax
  402af8:	48 89 45 f0          	mov    %rax,-0x10(%rbp)
  402afc:	48 8b 45 f8          	mov    -0x8(%rbp),%rax
  402b00:	48 83 e8 08          	sub    $0x8,%rax
  402b04:	48 89 c7             	mov    %rax,%rdi
  402b07:	e8 ac 25 00 00       	callq  4050b8 <my_free>
  402b0c:	48 8b 45 f8          	mov    -0x8(%rbp),%rax
  402b10:	48 89 c7             	mov    %rax,%rdi
  402b13:	e8 09 fd ff ff       	callq  402821 <list_delete_entry>
  402b18:	48 8b 45 f0          	mov    -0x10(%rbp),%rax
  402b1c:	48 3b 45 e8          	cmp    -0x18(%rbp),%rax
  402b20:	75 c7                	jne    402ae9 <delete_range_list+0x21>
  402b22:	c9                   	leaveq 
  402b23:	c3                   	retq   

0000000000402b24 <get_list_item_num>:
  402b24:	55                   	push   %rbp
  402b25:	48 89 e5             	mov    %rsp,%rbp
  402b28:	48 89 7d e8          	mov    %rdi,-0x18(%rbp)
  402b2c:	c7 45 f4 00 00 00 00 	movl   $0x0,-0xc(%rbp)
  402b33:	48 8b 45 e8          	mov    -0x18(%rbp),%rax
  402b37:	48 8b 00             	mov    (%rax),%rax
  402b3a:	48 89 45 f8          	mov    %rax,-0x8(%rbp)
  402b3e:	eb 0f                	jmp    402b4f <get_list_item_num+0x2b>
  402b40:	83 45 f4 01          	addl   $0x1,-0xc(%rbp)
  402b44:	48 8b 45 f8          	mov    -0x8(%rbp),%rax
  402b48:	48 8b 00             	mov    (%rax),%rax
  402b4b:	48 89 45 f8          	mov    %rax,-0x8(%rbp)
  402b4f:	48 8b 45 f8          	mov    -0x8(%rbp),%rax
  402b53:	48 3b 45 e8          	cmp    -0x18(%rbp),%rax
  402b57:	75 e7                	jne    402b40 <get_list_item_num+0x1c>
  402b59:	8b 45 f4             	mov    -0xc(%rbp),%eax
  402b5c:	5d                   	pop    %rbp
  402b5d:	c3                   	retq   

0000000000402b5e <find_node_by_seq>:
  402b5e:	55                   	push   %rbp
  402b5f:	48 89 e5             	mov    %rsp,%rbp
  402b62:	48 89 7d e8          	mov    %rdi,-0x18(%rbp)
  402b66:	89 75 e4             	mov    %esi,-0x1c(%rbp)
  402b69:	48 8b 45 e8          	mov    -0x18(%rbp),%rax
  402b6d:	48 8b 40 08          	mov    0x8(%rax),%rax
  402b71:	48 89 45 f0          	mov    %rax,-0x10(%rbp)
  402b75:	eb 29                	jmp    402ba0 <find_node_by_seq+0x42>
  402b77:	48 8b 45 f0          	mov    -0x10(%rbp),%rax
  402b7b:	48 83 e8 08          	sub    $0x8,%rax
  402b7f:	48 89 45 f8          	mov    %rax,-0x8(%rbp)
  402b83:	48 8b 45 f8          	mov    -0x8(%rbp),%rax
  402b87:	8b 00                	mov    (%rax),%eax
  402b89:	3b 45 e4             	cmp    -0x1c(%rbp),%eax
  402b8c:	75 06                	jne    402b94 <find_node_by_seq+0x36>
  402b8e:	48 8b 45 f0          	mov    -0x10(%rbp),%rax
  402b92:	eb 1b                	jmp    402baf <find_node_by_seq+0x51>
  402b94:	48 8b 45 f0          	mov    -0x10(%rbp),%rax
  402b98:	48 8b 40 08          	mov    0x8(%rax),%rax
  402b9c:	48 89 45 f0          	mov    %rax,-0x10(%rbp)
  402ba0:	48 8b 45 f0          	mov    -0x10(%rbp),%rax
  402ba4:	48 3b 45 e8          	cmp    -0x18(%rbp),%rax
  402ba8:	75 cd                	jne    402b77 <find_node_by_seq+0x19>
  402baa:	b8 00 00 00 00       	mov    $0x0,%eax
  402baf:	5d                   	pop    %rbp
  402bb0:	c3                   	retq   

0000000000402bb1 <delete_node_before_seq>:
  402bb1:	55                   	push   %rbp
  402bb2:	48 89 e5             	mov    %rsp,%rbp
  402bb5:	48 83 ec 20          	sub    $0x20,%rsp
  402bb9:	48 89 7d e8          	mov    %rdi,-0x18(%rbp)
  402bbd:	89 75 e4             	mov    %esi,-0x1c(%rbp)
  402bc0:	48 8b 45 e8          	mov    -0x18(%rbp),%rax
  402bc4:	48 8b 00             	mov    (%rax),%rax
  402bc7:	48 89 45 f0          	mov    %rax,-0x10(%rbp)
  402bcb:	eb 48                	jmp    402c15 <delete_node_before_seq+0x64>
  402bcd:	48 8b 45 f0          	mov    -0x10(%rbp),%rax
  402bd1:	48 83 e8 08          	sub    $0x8,%rax
  402bd5:	48 89 45 f8          	mov    %rax,-0x8(%rbp)
  402bd9:	48 8b 45 f8          	mov    -0x8(%rbp),%rax
  402bdd:	8b 40 04             	mov    0x4(%rax),%eax
  402be0:	3b 45 e4             	cmp    -0x1c(%rbp),%eax
  402be3:	77 18                	ja     402bfd <delete_node_before_seq+0x4c>
  402be5:	48 8b 45 f8          	mov    -0x8(%rbp),%rax
  402be9:	48 89 c7             	mov    %rax,%rdi
  402bec:	e8 c7 24 00 00       	callq  4050b8 <my_free>
  402bf1:	48 8b 45 f0          	mov    -0x10(%rbp),%rax
  402bf5:	48 89 c7             	mov    %rax,%rdi
  402bf8:	e8 24 fc ff ff       	callq  402821 <list_delete_entry>
  402bfd:	48 8b 45 f8          	mov    -0x8(%rbp),%rax
  402c01:	8b 00                	mov    (%rax),%eax
  402c03:	3b 45 e4             	cmp    -0x1c(%rbp),%eax
  402c06:	72 02                	jb     402c0a <delete_node_before_seq+0x59>
  402c08:	eb 15                	jmp    402c1f <delete_node_before_seq+0x6e>
  402c0a:	48 8b 45 f0          	mov    -0x10(%rbp),%rax
  402c0e:	48 8b 00             	mov    (%rax),%rax
  402c11:	48 89 45 f0          	mov    %rax,-0x10(%rbp)
  402c15:	48 8b 45 f0          	mov    -0x10(%rbp),%rax
  402c19:	48 3b 45 e8          	cmp    -0x18(%rbp),%rax
  402c1d:	75 ae                	jne    402bcd <delete_node_before_seq+0x1c>
  402c1f:	c9                   	leaveq 
  402c20:	c3                   	retq   

0000000000402c21 <read_nbits>:
  402c21:	55                   	push   %rbp
  402c22:	48 89 e5             	mov    %rsp,%rbp
  402c25:	48 89 7d e8          	mov    %rdi,-0x18(%rbp)
  402c29:	89 75 e4             	mov    %esi,-0x1c(%rbp)
  402c2c:	89 55 e0             	mov    %edx,-0x20(%rbp)
  402c2f:	8b 45 e0             	mov    -0x20(%rbp),%eax
  402c32:	8d 50 07             	lea    0x7(%rax),%edx
  402c35:	85 c0                	test   %eax,%eax
  402c37:	0f 48 c2             	cmovs  %edx,%eax
  402c3a:	c1 f8 03             	sar    $0x3,%eax
  402c3d:	48 98                	cltq   
  402c3f:	48 01 45 e8          	add    %rax,-0x18(%rbp)
  402c43:	8b 45 e0             	mov    -0x20(%rbp),%eax
  402c46:	99                   	cltd   
  402c47:	c1 ea 1d             	shr    $0x1d,%edx
  402c4a:	01 d0                	add    %edx,%eax
  402c4c:	83 e0 07             	and    $0x7,%eax
  402c4f:	29 d0                	sub    %edx,%eax
  402c51:	89 45 e0             	mov    %eax,-0x20(%rbp)
  402c54:	c7 45 f8 00 00 00 00 	movl   $0x0,-0x8(%rbp)
  402c5b:	c7 45 fc 00 00 00 00 	movl   $0x0,-0x4(%rbp)
  402c62:	83 7d e0 00          	cmpl   $0x0,-0x20(%rbp)
  402c66:	7e 30                	jle    402c98 <read_nbits+0x77>
  402c68:	b8 08 00 00 00       	mov    $0x8,%eax
  402c6d:	2b 45 e0             	sub    -0x20(%rbp),%eax
  402c70:	89 45 f8             	mov    %eax,-0x8(%rbp)
  402c73:	48 8b 45 e8          	mov    -0x18(%rbp),%rax
  402c77:	0f b6 00             	movzbl (%rax),%eax
  402c7a:	0f b6 d0             	movzbl %al,%edx
  402c7d:	8b 45 f8             	mov    -0x8(%rbp),%eax
  402c80:	be 01 00 00 00       	mov    $0x1,%esi
  402c85:	89 c1                	mov    %eax,%ecx
  402c87:	d3 e6                	shl    %cl,%esi
  402c89:	89 f0                	mov    %esi,%eax
  402c8b:	83 e8 01             	sub    $0x1,%eax
  402c8e:	21 d0                	and    %edx,%eax
  402c90:	89 45 fc             	mov    %eax,-0x4(%rbp)
  402c93:	48 83 45 e8 01       	addq   $0x1,-0x18(%rbp)
  402c98:	8b 45 f8             	mov    -0x8(%rbp),%eax
  402c9b:	3b 45 e4             	cmp    -0x1c(%rbp),%eax
  402c9e:	7e 14                	jle    402cb4 <read_nbits+0x93>
  402ca0:	8b 45 e4             	mov    -0x1c(%rbp),%eax
  402ca3:	8b 55 f8             	mov    -0x8(%rbp),%edx
  402ca6:	29 c2                	sub    %eax,%edx
  402ca8:	89 d0                	mov    %edx,%eax
  402caa:	89 c1                	mov    %eax,%ecx
  402cac:	d3 7d fc             	sarl   %cl,-0x4(%rbp)
  402caf:	8b 45 fc             	mov    -0x4(%rbp),%eax
  402cb2:	eb 55                	jmp    402d09 <read_nbits+0xe8>
  402cb4:	8b 45 f8             	mov    -0x8(%rbp),%eax
  402cb7:	29 45 e4             	sub    %eax,-0x1c(%rbp)
  402cba:	eb 44                	jmp    402d00 <read_nbits+0xdf>
  402cbc:	b8 08 00 00 00       	mov    $0x8,%eax
  402cc1:	83 7d e4 08          	cmpl   $0x8,-0x1c(%rbp)
  402cc5:	0f 4e 45 e4          	cmovle -0x1c(%rbp),%eax
  402cc9:	89 45 f8             	mov    %eax,-0x8(%rbp)
  402ccc:	8b 45 f8             	mov    -0x8(%rbp),%eax
  402ccf:	8b 55 fc             	mov    -0x4(%rbp),%edx
  402cd2:	89 d6                	mov    %edx,%esi
  402cd4:	89 c1                	mov    %eax,%ecx
  402cd6:	d3 e6                	shl    %cl,%esi
  402cd8:	48 8b 45 e8          	mov    -0x18(%rbp),%rax
  402cdc:	0f b6 00             	movzbl (%rax),%eax
  402cdf:	0f b6 d0             	movzbl %al,%edx
  402ce2:	b8 08 00 00 00       	mov    $0x8,%eax
  402ce7:	2b 45 f8             	sub    -0x8(%rbp),%eax
  402cea:	89 c1                	mov    %eax,%ecx
  402cec:	d3 fa                	sar    %cl,%edx
  402cee:	89 d0                	mov    %edx,%eax
  402cf0:	09 f0                	or     %esi,%eax
  402cf2:	89 45 fc             	mov    %eax,-0x4(%rbp)
  402cf5:	48 83 45 e8 01       	addq   $0x1,-0x18(%rbp)
  402cfa:	8b 45 f8             	mov    -0x8(%rbp),%eax
  402cfd:	29 45 e4             	sub    %eax,-0x1c(%rbp)
  402d00:	83 7d e4 00          	cmpl   $0x0,-0x1c(%rbp)
  402d04:	7f b6                	jg     402cbc <read_nbits+0x9b>
  402d06:	8b 45 fc             	mov    -0x4(%rbp),%eax
  402d09:	5d                   	pop    %rbp
  402d0a:	c3                   	retq   

0000000000402d0b <hash>:
  402d0b:	55                   	push   %rbp
  402d0c:	48 89 e5             	mov    %rsp,%rbp
  402d0f:	48 83 ec 28          	sub    $0x28,%rsp
  402d13:	48 89 7d d8          	mov    %rdi,-0x28(%rbp)
  402d17:	c7 45 e0 00 00 00 00 	movl   $0x0,-0x20(%rbp)
  402d1e:	c7 45 e8 03 00 00 00 	movl   $0x3,-0x18(%rbp)
  402d25:	c7 45 ec 60 00 00 00 	movl   $0x60,-0x14(%rbp)
  402d2c:	48 8b 45 d8          	mov    -0x28(%rbp),%rax
  402d30:	48 89 45 f8          	mov    %rax,-0x8(%rbp)
  402d34:	c7 45 e4 00 00 00 00 	movl   $0x0,-0x1c(%rbp)
  402d3b:	eb 59                	jmp    402d96 <hash+0x8b>
  402d3d:	8b 45 e4             	mov    -0x1c(%rbp),%eax
  402d40:	8b 55 ec             	mov    -0x14(%rbp),%edx
  402d43:	29 c2                	sub    %eax,%edx
  402d45:	89 d0                	mov    %edx,%eax
  402d47:	ba 14 00 00 00       	mov    $0x14,%edx
  402d4c:	83 f8 14             	cmp    $0x14,%eax
  402d4f:	0f 4f c2             	cmovg  %edx,%eax
  402d52:	89 45 f0             	mov    %eax,-0x10(%rbp)
  402d55:	8b 55 e4             	mov    -0x1c(%rbp),%edx
  402d58:	8b 4d f0             	mov    -0x10(%rbp),%ecx
  402d5b:	48 8b 45 f8          	mov    -0x8(%rbp),%rax
  402d5f:	89 ce                	mov    %ecx,%esi
  402d61:	48 89 c7             	mov    %rax,%rdi
  402d64:	e8 b8 fe ff ff       	callq  402c21 <read_nbits>
  402d69:	89 45 f4             	mov    %eax,-0xc(%rbp)
  402d6c:	8b 45 e8             	mov    -0x18(%rbp),%eax
  402d6f:	8b 55 f4             	mov    -0xc(%rbp),%edx
  402d72:	89 c1                	mov    %eax,%ecx
  402d74:	d3 e2                	shl    %cl,%edx
  402d76:	89 d0                	mov    %edx,%eax
  402d78:	25 ff ff 0f 00       	and    $0xfffff,%eax
  402d7d:	89 c6                	mov    %eax,%esi
  402d7f:	8b 45 e8             	mov    -0x18(%rbp),%eax
  402d82:	8b 55 f4             	mov    -0xc(%rbp),%edx
  402d85:	89 c1                	mov    %eax,%ecx
  402d87:	d3 fa                	sar    %cl,%edx
  402d89:	89 d0                	mov    %edx,%eax
  402d8b:	09 f0                	or     %esi,%eax
  402d8d:	31 45 e0             	xor    %eax,-0x20(%rbp)
  402d90:	8b 45 f0             	mov    -0x10(%rbp),%eax
  402d93:	01 45 e4             	add    %eax,-0x1c(%rbp)
  402d96:	8b 45 e4             	mov    -0x1c(%rbp),%eax
  402d99:	3b 45 ec             	cmp    -0x14(%rbp),%eax
  402d9c:	7c 9f                	jl     402d3d <hash+0x32>
  402d9e:	8b 45 e0             	mov    -0x20(%rbp),%eax
  402da1:	c9                   	leaveq 
  402da2:	c3                   	retq   

0000000000402da3 <new_hash_table>:
  402da3:	55                   	push   %rbp
  402da4:	48 89 e5             	mov    %rsp,%rbp
  402da7:	48 83 ec 10          	sub    $0x10,%rsp
  402dab:	bf 00 00 80 00       	mov    $0x800000,%edi
  402db0:	e8 ac 22 00 00       	callq  405061 <my_malloc>
  402db5:	48 89 45 f0          	mov    %rax,-0x10(%rbp)
  402db9:	48 8b 45 f0          	mov    -0x10(%rbp),%rax
  402dbd:	48 89 45 f8          	mov    %rax,-0x8(%rbp)
  402dc1:	48 83 7d f8 00       	cmpq   $0x0,-0x8(%rbp)
  402dc6:	75 3c                	jne    402e04 <new_hash_table+0x61>
  402dc8:	e8 d3 df ff ff       	callq  400da0 <__errno_location@plt>
  402dcd:	8b 00                	mov    (%rax),%eax
  402dcf:	89 c7                	mov    %eax,%edi
  402dd1:	e8 ea e1 ff ff       	callq  400fc0 <strerror@plt>
  402dd6:	48 89 c2             	mov    %rax,%rdx
  402dd9:	48 8b 05 50 54 20 00 	mov    0x205450(%rip),%rax        # 608230 <stderr@@GLIBC_2.2.5>
  402de0:	48 89 d1             	mov    %rdx,%rcx
  402de3:	ba 38 5e 40 00       	mov    $0x405e38,%edx
  402de8:	be 40 5e 40 00       	mov    $0x405e40,%esi
  402ded:	48 89 c7             	mov    %rax,%rdi
  402df0:	b8 00 00 00 00       	mov    $0x0,%eax
  402df5:	e8 c6 e0 ff ff       	callq  400ec0 <fprintf@plt>
  402dfa:	bf 01 00 00 00       	mov    $0x1,%edi
  402dff:	e8 7c e1 ff ff       	callq  400f80 <exit@plt>
  402e04:	48 8b 45 f8          	mov    -0x8(%rbp),%rax
  402e08:	c9                   	leaveq 
  402e09:	c3                   	retq   

0000000000402e0a <find_ts_entry>:
  402e0a:	55                   	push   %rbp
  402e0b:	48 89 e5             	mov    %rsp,%rbp
  402e0e:	48 83 ec 20          	sub    $0x20,%rsp
  402e12:	48 89 7d e8          	mov    %rdi,-0x18(%rbp)
  402e16:	48 89 75 e0          	mov    %rsi,-0x20(%rbp)
  402e1a:	48 8b 45 e0          	mov    -0x20(%rbp),%rax
  402e1e:	48 89 c7             	mov    %rax,%rdi
  402e21:	e8 e5 fe ff ff       	callq  402d0b <hash>
  402e26:	48 98                	cltq   
  402e28:	48 8d 14 c5 00 00 00 	lea    0x0(,%rax,8),%rdx
  402e2f:	00 
  402e30:	48 8b 45 e8          	mov    -0x18(%rbp),%rax
  402e34:	48 01 d0             	add    %rdx,%rax
  402e37:	48 8b 00             	mov    (%rax),%rax
  402e3a:	48 89 45 f8          	mov    %rax,-0x8(%rbp)
  402e3e:	eb 34                	jmp    402e74 <find_ts_entry+0x6a>
  402e40:	48 8b 45 f8          	mov    -0x8(%rbp),%rax
  402e44:	48 8b 00             	mov    (%rax),%rax
  402e47:	48 8b 4d e0          	mov    -0x20(%rbp),%rcx
  402e4b:	ba 0c 00 00 00       	mov    $0xc,%edx
  402e50:	48 89 ce             	mov    %rcx,%rsi
  402e53:	48 89 c7             	mov    %rax,%rdi
  402e56:	e8 25 e0 ff ff       	callq  400e80 <memcmp@plt>
  402e5b:	85 c0                	test   %eax,%eax
  402e5d:	75 09                	jne    402e68 <find_ts_entry+0x5e>
  402e5f:	48 8b 45 f8          	mov    -0x8(%rbp),%rax
  402e63:	48 8b 00             	mov    (%rax),%rax
  402e66:	eb 18                	jmp    402e80 <find_ts_entry+0x76>
  402e68:	48 8b 45 f8          	mov    -0x8(%rbp),%rax
  402e6c:	48 8b 40 08          	mov    0x8(%rax),%rax
  402e70:	48 89 45 f8          	mov    %rax,-0x8(%rbp)
  402e74:	48 83 7d f8 00       	cmpq   $0x0,-0x8(%rbp)
  402e79:	75 c5                	jne    402e40 <find_ts_entry+0x36>
  402e7b:	b8 00 00 00 00       	mov    $0x0,%eax
  402e80:	c9                   	leaveq 
  402e81:	c3                   	retq   

0000000000402e82 <insert_ts_entry>:
  402e82:	55                   	push   %rbp
  402e83:	48 89 e5             	mov    %rsp,%rbp
  402e86:	48 83 ec 30          	sub    $0x30,%rsp
  402e8a:	48 89 7d d8          	mov    %rdi,-0x28(%rbp)
  402e8e:	48 89 75 d0          	mov    %rsi,-0x30(%rbp)
  402e92:	48 8b 45 d0          	mov    -0x30(%rbp),%rax
  402e96:	48 89 c7             	mov    %rax,%rdi
  402e99:	e8 6d fe ff ff       	callq  402d0b <hash>
  402e9e:	89 45 ec             	mov    %eax,-0x14(%rbp)
  402ea1:	bf 10 00 00 00       	mov    $0x10,%edi
  402ea6:	e8 b6 21 00 00       	callq  405061 <my_malloc>
  402eab:	48 89 45 f0          	mov    %rax,-0x10(%rbp)
  402eaf:	48 8b 45 f0          	mov    -0x10(%rbp),%rax
  402eb3:	48 89 45 f8          	mov    %rax,-0x8(%rbp)
  402eb7:	48 8b 45 f8          	mov    -0x8(%rbp),%rax
  402ebb:	48 8b 55 d0          	mov    -0x30(%rbp),%rdx
  402ebf:	48 89 10             	mov    %rdx,(%rax)
  402ec2:	8b 45 ec             	mov    -0x14(%rbp),%eax
  402ec5:	48 98                	cltq   
  402ec7:	48 8d 14 c5 00 00 00 	lea    0x0(,%rax,8),%rdx
  402ece:	00 
  402ecf:	48 8b 45 d8          	mov    -0x28(%rbp),%rax
  402ed3:	48 01 d0             	add    %rdx,%rax
  402ed6:	48 8b 10             	mov    (%rax),%rdx
  402ed9:	48 8b 45 f8          	mov    -0x8(%rbp),%rax
  402edd:	48 89 50 08          	mov    %rdx,0x8(%rax)
  402ee1:	8b 45 ec             	mov    -0x14(%rbp),%eax
  402ee4:	48 98                	cltq   
  402ee6:	48 8d 14 c5 00 00 00 	lea    0x0(,%rax,8),%rdx
  402eed:	00 
  402eee:	48 8b 45 d8          	mov    -0x28(%rbp),%rax
  402ef2:	48 01 c2             	add    %rax,%rdx
  402ef5:	48 8b 45 f8          	mov    -0x8(%rbp),%rax
  402ef9:	48 89 02             	mov    %rax,(%rdx)
  402efc:	b8 00 00 00 00       	mov    $0x0,%eax
  402f01:	c9                   	leaveq 
  402f02:	c3                   	retq   

0000000000402f03 <delete_ts_entry>:
  402f03:	55                   	push   %rbp
  402f04:	48 89 e5             	mov    %rsp,%rbp
  402f07:	48 83 ec 30          	sub    $0x30,%rsp
  402f0b:	48 89 7d d8          	mov    %rdi,-0x28(%rbp)
  402f0f:	48 89 75 d0          	mov    %rsi,-0x30(%rbp)
  402f13:	48 8b 45 d0          	mov    -0x30(%rbp),%rax
  402f17:	48 89 c7             	mov    %rax,%rdi
  402f1a:	e8 ec fd ff ff       	callq  402d0b <hash>
  402f1f:	89 45 ec             	mov    %eax,-0x14(%rbp)
  402f22:	8b 45 ec             	mov    -0x14(%rbp),%eax
  402f25:	48 98                	cltq   
  402f27:	48 8d 14 c5 00 00 00 	lea    0x0(,%rax,8),%rdx
  402f2e:	00 
  402f2f:	48 8b 45 d8          	mov    -0x28(%rbp),%rax
  402f33:	48 01 d0             	add    %rdx,%rax
  402f36:	48 8b 00             	mov    (%rax),%rax
  402f39:	48 89 45 f0          	mov    %rax,-0x10(%rbp)
  402f3d:	48 c7 45 f8 00 00 00 	movq   $0x0,-0x8(%rbp)
  402f44:	00 
  402f45:	48 8b 4d d0          	mov    -0x30(%rbp),%rcx
  402f49:	48 8b 45 f0          	mov    -0x10(%rbp),%rax
  402f4d:	48 8b 00             	mov    (%rax),%rax
  402f50:	ba 0c 00 00 00       	mov    $0xc,%edx
  402f55:	48 89 ce             	mov    %rcx,%rsi
  402f58:	48 89 c7             	mov    %rax,%rdi
  402f5b:	e8 20 df ff ff       	callq  400e80 <memcmp@plt>
  402f60:	85 c0                	test   %eax,%eax
  402f62:	75 49                	jne    402fad <delete_ts_entry+0xaa>
  402f64:	48 8b 45 f0          	mov    -0x10(%rbp),%rax
  402f68:	48 89 45 f8          	mov    %rax,-0x8(%rbp)
  402f6c:	8b 45 ec             	mov    -0x14(%rbp),%eax
  402f6f:	48 98                	cltq   
  402f71:	48 8d 14 c5 00 00 00 	lea    0x0(,%rax,8),%rdx
  402f78:	00 
  402f79:	48 8b 45 d8          	mov    -0x28(%rbp),%rax
  402f7d:	48 01 c2             	add    %rax,%rdx
  402f80:	48 8b 45 f8          	mov    -0x8(%rbp),%rax
  402f84:	48 8b 40 08          	mov    0x8(%rax),%rax
  402f88:	48 89 02             	mov    %rax,(%rdx)
  402f8b:	48 8b 45 f8          	mov    -0x8(%rbp),%rax
  402f8f:	48 8b 00             	mov    (%rax),%rax
  402f92:	48 89 c7             	mov    %rax,%rdi
  402f95:	e8 d5 1f 00 00       	callq  404f6f <finish_tcp_state>
  402f9a:	48 8b 45 f8          	mov    -0x8(%rbp),%rax
  402f9e:	48 89 c7             	mov    %rax,%rdi
  402fa1:	e8 12 21 00 00       	callq  4050b8 <my_free>
  402fa6:	b8 01 00 00 00       	mov    $0x1,%eax
  402fab:	eb 7d                	jmp    40302a <delete_ts_entry+0x127>
  402fad:	eb 69                	jmp    403018 <delete_ts_entry+0x115>
  402faf:	48 8b 45 f0          	mov    -0x10(%rbp),%rax
  402fb3:	48 8b 40 08          	mov    0x8(%rax),%rax
  402fb7:	48 89 45 f8          	mov    %rax,-0x8(%rbp)
  402fbb:	48 8b 4d d0          	mov    -0x30(%rbp),%rcx
  402fbf:	48 8b 45 f8          	mov    -0x8(%rbp),%rax
  402fc3:	48 8b 00             	mov    (%rax),%rax
  402fc6:	ba 0c 00 00 00       	mov    $0xc,%edx
  402fcb:	48 89 ce             	mov    %rcx,%rsi
  402fce:	48 89 c7             	mov    %rax,%rdi
  402fd1:	e8 aa de ff ff       	callq  400e80 <memcmp@plt>
  402fd6:	85 c0                	test   %eax,%eax
  402fd8:	75 32                	jne    40300c <delete_ts_entry+0x109>
  402fda:	48 8b 45 f8          	mov    -0x8(%rbp),%rax
  402fde:	48 8b 50 08          	mov    0x8(%rax),%rdx
  402fe2:	48 8b 45 f0          	mov    -0x10(%rbp),%rax
  402fe6:	48 89 50 08          	mov    %rdx,0x8(%rax)
  402fea:	48 8b 45 f8          	mov    -0x8(%rbp),%rax
  402fee:	48 8b 00             	mov    (%rax),%rax
  402ff1:	48 89 c7             	mov    %rax,%rdi
  402ff4:	e8 76 1f 00 00       	callq  404f6f <finish_tcp_state>
  402ff9:	48 8b 45 f8          	mov    -0x8(%rbp),%rax
  402ffd:	48 89 c7             	mov    %rax,%rdi
  403000:	e8 b3 20 00 00       	callq  4050b8 <my_free>
  403005:	b8 01 00 00 00       	mov    $0x1,%eax
  40300a:	eb 1e                	jmp    40302a <delete_ts_entry+0x127>
  40300c:	48 8b 45 f0          	mov    -0x10(%rbp),%rax
  403010:	48 8b 40 08          	mov    0x8(%rax),%rax
  403014:	48 89 45 f0          	mov    %rax,-0x10(%rbp)
  403018:	48 8b 45 f0          	mov    -0x10(%rbp),%rax
  40301c:	48 8b 40 08          	mov    0x8(%rax),%rax
  403020:	48 85 c0             	test   %rax,%rax
  403023:	75 8a                	jne    402faf <delete_ts_entry+0xac>
  403025:	b8 00 00 00 00       	mov    $0x0,%eax
  40302a:	c9                   	leaveq 
  40302b:	c3                   	retq   

000000000040302c <cleanup_hash_table>:
  40302c:	55                   	push   %rbp
  40302d:	48 89 e5             	mov    %rsp,%rbp
  403030:	48 83 ec 20          	sub    $0x20,%rsp
  403034:	48 89 7d e8          	mov    %rdi,-0x18(%rbp)
  403038:	c7 45 f4 00 00 00 00 	movl   $0x0,-0xc(%rbp)
  40303f:	eb 7b                	jmp    4030bc <cleanup_hash_table+0x90>
  403041:	eb 59                	jmp    40309c <cleanup_hash_table+0x70>
  403043:	8b 45 f4             	mov    -0xc(%rbp),%eax
  403046:	48 98                	cltq   
  403048:	48 8d 14 c5 00 00 00 	lea    0x0(,%rax,8),%rdx
  40304f:	00 
  403050:	48 8b 45 e8          	mov    -0x18(%rbp),%rax
  403054:	48 01 d0             	add    %rdx,%rax
  403057:	48 8b 00             	mov    (%rax),%rax
  40305a:	48 89 45 f8          	mov    %rax,-0x8(%rbp)
  40305e:	8b 45 f4             	mov    -0xc(%rbp),%eax
  403061:	48 98                	cltq   
  403063:	48 8d 14 c5 00 00 00 	lea    0x0(,%rax,8),%rdx
  40306a:	00 
  40306b:	48 8b 45 e8          	mov    -0x18(%rbp),%rax
  40306f:	48 01 c2             	add    %rax,%rdx
  403072:	8b 45 f4             	mov    -0xc(%rbp),%eax
  403075:	48 98                	cltq   
  403077:	48 8d 0c c5 00 00 00 	lea    0x0(,%rax,8),%rcx
  40307e:	00 
  40307f:	48 8b 45 e8          	mov    -0x18(%rbp),%rax
  403083:	48 01 c8             	add    %rcx,%rax
  403086:	48 8b 00             	mov    (%rax),%rax
  403089:	48 8b 40 08          	mov    0x8(%rax),%rax
  40308d:	48 89 02             	mov    %rax,(%rdx)
  403090:	48 8b 45 f8          	mov    -0x8(%rbp),%rax
  403094:	48 89 c7             	mov    %rax,%rdi
  403097:	e8 1c 20 00 00       	callq  4050b8 <my_free>
  40309c:	8b 45 f4             	mov    -0xc(%rbp),%eax
  40309f:	48 98                	cltq   
  4030a1:	48 8d 14 c5 00 00 00 	lea    0x0(,%rax,8),%rdx
  4030a8:	00 
  4030a9:	48 8b 45 e8          	mov    -0x18(%rbp),%rax
  4030ad:	48 01 d0             	add    %rdx,%rax
  4030b0:	48 8b 00             	mov    (%rax),%rax
  4030b3:	48 85 c0             	test   %rax,%rax
  4030b6:	75 8b                	jne    403043 <cleanup_hash_table+0x17>
  4030b8:	83 45 f4 01          	addl   $0x1,-0xc(%rbp)
  4030bc:	81 7d f4 ff ff 0f 00 	cmpl   $0xfffff,-0xc(%rbp)
  4030c3:	0f 8e 78 ff ff ff    	jle    403041 <cleanup_hash_table+0x15>
  4030c9:	48 8b 45 e8          	mov    -0x18(%rbp),%rax
  4030cd:	48 89 c7             	mov    %rax,%rdi
  4030d0:	e8 e3 1f 00 00       	callq  4050b8 <my_free>
  4030d5:	c9                   	leaveq 
  4030d6:	c3                   	retq   

00000000004030d7 <rtt_hash>:
  4030d7:	55                   	push   %rbp
  4030d8:	48 89 e5             	mov    %rsp,%rbp
  4030db:	48 89 7d f8          	mov    %rdi,-0x8(%rbp)
  4030df:	48 8b 45 f8          	mov    -0x8(%rbp),%rax
  4030e3:	8b 00                	mov    (%rax),%eax
  4030e5:	25 ff 03 00 00       	and    $0x3ff,%eax
  4030ea:	5d                   	pop    %rbp
  4030eb:	c3                   	retq   

00000000004030ec <new_rtt_hash_table>:
  4030ec:	55                   	push   %rbp
  4030ed:	48 89 e5             	mov    %rsp,%rbp
  4030f0:	48 83 ec 10          	sub    $0x10,%rsp
  4030f4:	bf 00 20 00 00       	mov    $0x2000,%edi
  4030f9:	e8 63 1f 00 00       	callq  405061 <my_malloc>
  4030fe:	48 89 45 f0          	mov    %rax,-0x10(%rbp)
  403102:	48 8b 45 f0          	mov    -0x10(%rbp),%rax
  403106:	48 89 45 f8          	mov    %rax,-0x8(%rbp)
  40310a:	48 83 7d f8 00       	cmpq   $0x0,-0x8(%rbp)
  40310f:	75 3c                	jne    40314d <new_rtt_hash_table+0x61>
  403111:	e8 8a dc ff ff       	callq  400da0 <__errno_location@plt>
  403116:	8b 00                	mov    (%rax),%eax
  403118:	89 c7                	mov    %eax,%edi
  40311a:	e8 a1 de ff ff       	callq  400fc0 <strerror@plt>
  40311f:	48 89 c2             	mov    %rax,%rdx
  403122:	48 8b 05 07 51 20 00 	mov    0x205107(%rip),%rax        # 608230 <stderr@@GLIBC_2.2.5>
  403129:	48 89 d1             	mov    %rdx,%rcx
  40312c:	ba 38 5e 40 00       	mov    $0x405e38,%edx
  403131:	be 40 5e 40 00       	mov    $0x405e40,%esi
  403136:	48 89 c7             	mov    %rax,%rdi
  403139:	b8 00 00 00 00       	mov    $0x0,%eax
  40313e:	e8 7d dd ff ff       	callq  400ec0 <fprintf@plt>
  403143:	bf 01 00 00 00       	mov    $0x1,%edi
  403148:	e8 33 de ff ff       	callq  400f80 <exit@plt>
  40314d:	48 8b 45 f8          	mov    -0x8(%rbp),%rax
  403151:	c9                   	leaveq 
  403152:	c3                   	retq   

0000000000403153 <find_rtt_entry>:
  403153:	55                   	push   %rbp
  403154:	48 89 e5             	mov    %rsp,%rbp
  403157:	48 83 ec 20          	sub    $0x20,%rsp
  40315b:	48 89 7d e8          	mov    %rdi,-0x18(%rbp)
  40315f:	48 89 75 e0          	mov    %rsi,-0x20(%rbp)
  403163:	48 8d 45 e0          	lea    -0x20(%rbp),%rax
  403167:	48 83 c0 04          	add    $0x4,%rax
  40316b:	48 89 c7             	mov    %rax,%rdi
  40316e:	e8 64 ff ff ff       	callq  4030d7 <rtt_hash>
  403173:	48 98                	cltq   
  403175:	48 8d 14 c5 00 00 00 	lea    0x0(,%rax,8),%rdx
  40317c:	00 
  40317d:	48 8b 45 e8          	mov    -0x18(%rbp),%rax
  403181:	48 01 d0             	add    %rdx,%rax
  403184:	48 8b 00             	mov    (%rax),%rax
  403187:	48 89 45 f8          	mov    %rax,-0x8(%rbp)
  40318b:	eb 3c                	jmp    4031c9 <find_rtt_entry+0x76>
  40318d:	48 8b 45 f8          	mov    -0x8(%rbp),%rax
  403191:	48 8b 00             	mov    (%rax),%rax
  403194:	48 83 c0 04          	add    $0x4,%rax
  403198:	48 8d 55 e0          	lea    -0x20(%rbp),%rdx
  40319c:	48 8d 4a 04          	lea    0x4(%rdx),%rcx
  4031a0:	ba 04 00 00 00       	mov    $0x4,%edx
  4031a5:	48 89 ce             	mov    %rcx,%rsi
  4031a8:	48 89 c7             	mov    %rax,%rdi
  4031ab:	e8 d0 dc ff ff       	callq  400e80 <memcmp@plt>
  4031b0:	85 c0                	test   %eax,%eax
  4031b2:	75 09                	jne    4031bd <find_rtt_entry+0x6a>
  4031b4:	48 8b 45 f8          	mov    -0x8(%rbp),%rax
  4031b8:	48 8b 00             	mov    (%rax),%rax
  4031bb:	eb 18                	jmp    4031d5 <find_rtt_entry+0x82>
  4031bd:	48 8b 45 f8          	mov    -0x8(%rbp),%rax
  4031c1:	48 8b 40 08          	mov    0x8(%rax),%rax
  4031c5:	48 89 45 f8          	mov    %rax,-0x8(%rbp)
  4031c9:	48 83 7d f8 00       	cmpq   $0x0,-0x8(%rbp)
  4031ce:	75 bd                	jne    40318d <find_rtt_entry+0x3a>
  4031d0:	b8 00 00 00 00       	mov    $0x0,%eax
  4031d5:	c9                   	leaveq 
  4031d6:	c3                   	retq   

00000000004031d7 <insert_rtt_entry>:
  4031d7:	55                   	push   %rbp
  4031d8:	48 89 e5             	mov    %rsp,%rbp
  4031db:	48 83 ec 30          	sub    $0x30,%rsp
  4031df:	48 89 7d d8          	mov    %rdi,-0x28(%rbp)
  4031e3:	48 89 75 d0          	mov    %rsi,-0x30(%rbp)
  4031e7:	48 8b 45 d0          	mov    -0x30(%rbp),%rax
  4031eb:	48 89 c7             	mov    %rax,%rdi
  4031ee:	e8 e4 fe ff ff       	callq  4030d7 <rtt_hash>
  4031f3:	89 45 ec             	mov    %eax,-0x14(%rbp)
  4031f6:	bf 10 00 00 00       	mov    $0x10,%edi
  4031fb:	e8 61 1e 00 00       	callq  405061 <my_malloc>
  403200:	48 89 45 f0          	mov    %rax,-0x10(%rbp)
  403204:	48 8b 45 f0          	mov    -0x10(%rbp),%rax
  403208:	48 89 45 f8          	mov    %rax,-0x8(%rbp)
  40320c:	48 8b 45 f8          	mov    -0x8(%rbp),%rax
  403210:	48 8b 55 d0          	mov    -0x30(%rbp),%rdx
  403214:	48 89 10             	mov    %rdx,(%rax)
  403217:	8b 45 ec             	mov    -0x14(%rbp),%eax
  40321a:	48 98                	cltq   
  40321c:	48 8d 14 c5 00 00 00 	lea    0x0(,%rax,8),%rdx
  403223:	00 
  403224:	48 8b 45 d8          	mov    -0x28(%rbp),%rax
  403228:	48 01 d0             	add    %rdx,%rax
  40322b:	48 8b 10             	mov    (%rax),%rdx
  40322e:	48 8b 45 f8          	mov    -0x8(%rbp),%rax
  403232:	48 89 50 08          	mov    %rdx,0x8(%rax)
  403236:	8b 45 ec             	mov    -0x14(%rbp),%eax
  403239:	48 98                	cltq   
  40323b:	48 8d 14 c5 00 00 00 	lea    0x0(,%rax,8),%rdx
  403242:	00 
  403243:	48 8b 45 d8          	mov    -0x28(%rbp),%rax
  403247:	48 01 c2             	add    %rax,%rdx
  40324a:	48 8b 45 f8          	mov    -0x8(%rbp),%rax
  40324e:	48 89 02             	mov    %rax,(%rdx)
  403251:	b8 00 00 00 00       	mov    $0x0,%eax
  403256:	c9                   	leaveq 
  403257:	c3                   	retq   

0000000000403258 <delete_rtt_entry>:
  403258:	55                   	push   %rbp
  403259:	48 89 e5             	mov    %rsp,%rbp
  40325c:	48 83 ec 30          	sub    $0x30,%rsp
  403260:	48 89 7d d8          	mov    %rdi,-0x28(%rbp)
  403264:	48 89 75 d0          	mov    %rsi,-0x30(%rbp)
  403268:	48 8d 45 d0          	lea    -0x30(%rbp),%rax
  40326c:	48 89 c7             	mov    %rax,%rdi
  40326f:	e8 63 fe ff ff       	callq  4030d7 <rtt_hash>
  403274:	89 45 ec             	mov    %eax,-0x14(%rbp)
  403277:	8b 45 ec             	mov    -0x14(%rbp),%eax
  40327a:	48 98                	cltq   
  40327c:	48 8d 14 c5 00 00 00 	lea    0x0(,%rax,8),%rdx
  403283:	00 
  403284:	48 8b 45 d8          	mov    -0x28(%rbp),%rax
  403288:	48 01 d0             	add    %rdx,%rax
  40328b:	48 8b 00             	mov    (%rax),%rax
  40328e:	48 89 45 f0          	mov    %rax,-0x10(%rbp)
  403292:	48 c7 45 f8 00 00 00 	movq   $0x0,-0x8(%rbp)
  403299:	00 
  40329a:	48 8b 45 f0          	mov    -0x10(%rbp),%rax
  40329e:	48 8b 00             	mov    (%rax),%rax
  4032a1:	48 8d 4d d0          	lea    -0x30(%rbp),%rcx
  4032a5:	ba 04 00 00 00       	mov    $0x4,%edx
  4032aa:	48 89 ce             	mov    %rcx,%rsi
  4032ad:	48 89 c7             	mov    %rax,%rdi
  4032b0:	e8 cb db ff ff       	callq  400e80 <memcmp@plt>
  4032b5:	85 c0                	test   %eax,%eax
  4032b7:	75 3a                	jne    4032f3 <delete_rtt_entry+0x9b>
  4032b9:	48 8b 45 f0          	mov    -0x10(%rbp),%rax
  4032bd:	48 89 45 f8          	mov    %rax,-0x8(%rbp)
  4032c1:	8b 45 ec             	mov    -0x14(%rbp),%eax
  4032c4:	48 98                	cltq   
  4032c6:	48 8d 14 c5 00 00 00 	lea    0x0(,%rax,8),%rdx
  4032cd:	00 
  4032ce:	48 8b 45 d8          	mov    -0x28(%rbp),%rax
  4032d2:	48 01 c2             	add    %rax,%rdx
  4032d5:	48 8b 45 f8          	mov    -0x8(%rbp),%rax
  4032d9:	48 8b 40 08          	mov    0x8(%rax),%rax
  4032dd:	48 89 02             	mov    %rax,(%rdx)
  4032e0:	48 8b 45 f8          	mov    -0x8(%rbp),%rax
  4032e4:	48 89 c7             	mov    %rax,%rdi
  4032e7:	e8 cc 1d 00 00       	callq  4050b8 <my_free>
  4032ec:	b8 01 00 00 00       	mov    $0x1,%eax
  4032f1:	eb 6e                	jmp    403361 <delete_rtt_entry+0x109>
  4032f3:	eb 5a                	jmp    40334f <delete_rtt_entry+0xf7>
  4032f5:	48 8b 45 f0          	mov    -0x10(%rbp),%rax
  4032f9:	48 8b 40 08          	mov    0x8(%rax),%rax
  4032fd:	48 89 45 f8          	mov    %rax,-0x8(%rbp)
  403301:	48 8b 45 f0          	mov    -0x10(%rbp),%rax
  403305:	48 8b 00             	mov    (%rax),%rax
  403308:	48 8d 4d d0          	lea    -0x30(%rbp),%rcx
  40330c:	ba 04 00 00 00       	mov    $0x4,%edx
  403311:	48 89 ce             	mov    %rcx,%rsi
  403314:	48 89 c7             	mov    %rax,%rdi
  403317:	e8 64 db ff ff       	callq  400e80 <memcmp@plt>
  40331c:	85 c0                	test   %eax,%eax
  40331e:	75 23                	jne    403343 <delete_rtt_entry+0xeb>
  403320:	48 8b 45 f8          	mov    -0x8(%rbp),%rax
  403324:	48 8b 50 08          	mov    0x8(%rax),%rdx
  403328:	48 8b 45 f0          	mov    -0x10(%rbp),%rax
  40332c:	48 89 50 08          	mov    %rdx,0x8(%rax)
  403330:	48 8b 45 f8          	mov    -0x8(%rbp),%rax
  403334:	48 89 c7             	mov    %rax,%rdi
  403337:	e8 7c 1d 00 00       	callq  4050b8 <my_free>
  40333c:	b8 01 00 00 00       	mov    $0x1,%eax
  403341:	eb 1e                	jmp    403361 <delete_rtt_entry+0x109>
  403343:	48 8b 45 f0          	mov    -0x10(%rbp),%rax
  403347:	48 8b 40 08          	mov    0x8(%rax),%rax
  40334b:	48 89 45 f0          	mov    %rax,-0x10(%rbp)
  40334f:	48 8b 45 f0          	mov    -0x10(%rbp),%rax
  403353:	48 8b 40 08          	mov    0x8(%rax),%rax
  403357:	48 85 c0             	test   %rax,%rax
  40335a:	75 99                	jne    4032f5 <delete_rtt_entry+0x9d>
  40335c:	b8 00 00 00 00       	mov    $0x0,%eax
  403361:	c9                   	leaveq 
  403362:	c3                   	retq   

0000000000403363 <cleanup_rtt_hash_table>:
  403363:	55                   	push   %rbp
  403364:	48 89 e5             	mov    %rsp,%rbp
  403367:	48 83 ec 20          	sub    $0x20,%rsp
  40336b:	48 89 7d e8          	mov    %rdi,-0x18(%rbp)
  40336f:	c7 45 f4 00 00 00 00 	movl   $0x0,-0xc(%rbp)
  403376:	eb 7b                	jmp    4033f3 <cleanup_rtt_hash_table+0x90>
  403378:	eb 59                	jmp    4033d3 <cleanup_rtt_hash_table+0x70>
  40337a:	8b 45 f4             	mov    -0xc(%rbp),%eax
  40337d:	48 98                	cltq   
  40337f:	48 8d 14 c5 00 00 00 	lea    0x0(,%rax,8),%rdx
  403386:	00 
  403387:	48 8b 45 e8          	mov    -0x18(%rbp),%rax
  40338b:	48 01 d0             	add    %rdx,%rax
  40338e:	48 8b 00             	mov    (%rax),%rax
  403391:	48 89 45 f8          	mov    %rax,-0x8(%rbp)
  403395:	8b 45 f4             	mov    -0xc(%rbp),%eax
  403398:	48 98                	cltq   
  40339a:	48 8d 14 c5 00 00 00 	lea    0x0(,%rax,8),%rdx
  4033a1:	00 
  4033a2:	48 8b 45 e8          	mov    -0x18(%rbp),%rax
  4033a6:	48 01 c2             	add    %rax,%rdx
  4033a9:	8b 45 f4             	mov    -0xc(%rbp),%eax
  4033ac:	48 98                	cltq   
  4033ae:	48 8d 0c c5 00 00 00 	lea    0x0(,%rax,8),%rcx
  4033b5:	00 
  4033b6:	48 8b 45 e8          	mov    -0x18(%rbp),%rax
  4033ba:	48 01 c8             	add    %rcx,%rax
  4033bd:	48 8b 00             	mov    (%rax),%rax
  4033c0:	48 8b 40 08          	mov    0x8(%rax),%rax
  4033c4:	48 89 02             	mov    %rax,(%rdx)
  4033c7:	48 8b 45 f8          	mov    -0x8(%rbp),%rax
  4033cb:	48 89 c7             	mov    %rax,%rdi
  4033ce:	e8 e5 1c 00 00       	callq  4050b8 <my_free>
  4033d3:	8b 45 f4             	mov    -0xc(%rbp),%eax
  4033d6:	48 98                	cltq   
  4033d8:	48 8d 14 c5 00 00 00 	lea    0x0(,%rax,8),%rdx
  4033df:	00 
  4033e0:	48 8b 45 e8          	mov    -0x18(%rbp),%rax
  4033e4:	48 01 d0             	add    %rdx,%rax
  4033e7:	48 8b 00             	mov    (%rax),%rax
  4033ea:	48 85 c0             	test   %rax,%rax
  4033ed:	75 8b                	jne    40337a <cleanup_rtt_hash_table+0x17>
  4033ef:	83 45 f4 01          	addl   $0x1,-0xc(%rbp)
  4033f3:	81 7d f4 ff 03 00 00 	cmpl   $0x3ff,-0xc(%rbp)
  4033fa:	0f 8e 78 ff ff ff    	jle    403378 <cleanup_rtt_hash_table+0x15>
  403400:	48 8b 45 e8          	mov    -0x18(%rbp),%rax
  403404:	48 89 c7             	mov    %rax,%rdi
  403407:	e8 ac 1c 00 00       	callq  4050b8 <my_free>
  40340c:	c9                   	leaveq 
  40340d:	c3                   	retq   

000000000040340e <print_version>:
  40340e:	55                   	push   %rbp
  40340f:	48 89 e5             	mov    %rsp,%rbp
  403412:	48 8b 05 07 4e 20 00 	mov    0x204e07(%rip),%rax        # 608220 <__TMC_END__>
  403419:	b9 33 5f 40 00       	mov    $0x405f33,%ecx
  40341e:	ba 39 5f 40 00       	mov    $0x405f39,%edx
  403423:	be 42 5f 40 00       	mov    $0x405f42,%esi
  403428:	48 89 c7             	mov    %rax,%rdi
  40342b:	b8 00 00 00 00       	mov    $0x0,%eax
  403430:	e8 8b da ff ff       	callq  400ec0 <fprintf@plt>
  403435:	5d                   	pop    %rbp
  403436:	c3                   	retq   

0000000000403437 <usage_exit>:
  403437:	55                   	push   %rbp
  403438:	48 89 e5             	mov    %rsp,%rbp
  40343b:	48 83 ec 10          	sub    $0x10,%rsp
  40343f:	89 7d fc             	mov    %edi,-0x4(%rbp)
  403442:	48 8b 15 e7 4d 20 00 	mov    0x204de7(%rip),%rdx        # 608230 <stderr@@GLIBC_2.2.5>
  403449:	48 8b 05 b8 4d 20 00 	mov    0x204db8(%rip),%rax        # 608208 <usage>
  403450:	48 89 d6             	mov    %rdx,%rsi
  403453:	48 89 c7             	mov    %rax,%rdi
  403456:	e8 e5 d9 ff ff       	callq  400e40 <fputs@plt>
  40345b:	8b 45 fc             	mov    -0x4(%rbp),%eax
  40345e:	89 c7                	mov    %eax,%edi
  403460:	e8 1b db ff ff       	callq  400f80 <exit@plt>

0000000000403465 <parse_cmd_options>:
  403465:	55                   	push   %rbp
  403466:	48 89 e5             	mov    %rsp,%rbp
  403469:	48 83 ec 30          	sub    $0x30,%rsp
  40346d:	89 7d dc             	mov    %edi,-0x24(%rbp)
  403470:	48 89 75 d0          	mov    %rsi,-0x30(%rbp)
  403474:	c7 45 f0 00 00 00 00 	movl   $0x0,-0x10(%rbp)
  40347b:	c7 45 f4 00 00 00 00 	movl   $0x0,-0xc(%rbp)
  403482:	48 c7 45 f8 4b 5f 40 	movq   $0x405f4b,-0x8(%rbp)
  403489:	00 
  40348a:	e9 4f 01 00 00       	jmpq   4035de <parse_cmd_options+0x179>
  40348f:	0f be 45 ef          	movsbl -0x11(%rbp),%eax
  403493:	83 e8 63             	sub    $0x63,%eax
  403496:	83 f8 13             	cmp    $0x13,%eax
  403499:	0f 87 34 01 00 00    	ja     4035d3 <parse_cmd_options+0x16e>
  40349f:	89 c0                	mov    %eax,%eax
  4034a1:	48 8b 04 c5 60 5f 40 	mov    0x405f60(,%rax,8),%rax
  4034a8:	00 
  4034a9:	ff e0                	jmpq   *%rax
  4034ab:	8b 05 cf 4d 20 00    	mov    0x204dcf(%rip),%eax        # 608280 <pcap_type>
  4034b1:	83 f8 01             	cmp    $0x1,%eax
  4034b4:	75 0a                	jne    4034c0 <parse_cmd_options+0x5b>
  4034b6:	bf 01 00 00 00       	mov    $0x1,%edi
  4034bb:	e8 77 ff ff ff       	callq  403437 <usage_exit>
  4034c0:	48 8b 05 61 4d 20 00 	mov    0x204d61(%rip),%rax        # 608228 <optarg@@GLIBC_2.2.5>
  4034c7:	ba ff 03 00 00       	mov    $0x3ff,%edx
  4034cc:	48 89 c6             	mov    %rax,%rsi
  4034cf:	bf a0 82 60 00       	mov    $0x6082a0,%edi
  4034d4:	e8 d7 d8 ff ff       	callq  400db0 <strncpy@plt>
  4034d9:	c7 05 9d 4d 20 00 02 	movl   $0x2,0x204d9d(%rip)        # 608280 <pcap_type>
  4034e0:	00 00 00 
  4034e3:	e9 f6 00 00 00       	jmpq   4035de <parse_cmd_options+0x179>
  4034e8:	8b 05 92 4d 20 00    	mov    0x204d92(%rip),%eax        # 608280 <pcap_type>
  4034ee:	83 f8 02             	cmp    $0x2,%eax
  4034f1:	75 0a                	jne    4034fd <parse_cmd_options+0x98>
  4034f3:	bf 01 00 00 00       	mov    $0x1,%edi
  4034f8:	e8 3a ff ff ff       	callq  403437 <usage_exit>
  4034fd:	48 8b 05 24 4d 20 00 	mov    0x204d24(%rip),%rax        # 608228 <optarg@@GLIBC_2.2.5>
  403504:	ba 7f 00 00 00       	mov    $0x7f,%edx
  403509:	48 89 c6             	mov    %rax,%rsi
  40350c:	bf a0 86 60 00       	mov    $0x6086a0,%edi
  403511:	e8 9a d8 ff ff       	callq  400db0 <strncpy@plt>
  403516:	c7 05 60 4d 20 00 01 	movl   $0x1,0x204d60(%rip)        # 608280 <pcap_type>
  40351d:	00 00 00 
  403520:	e9 b9 00 00 00       	jmpq   4035de <parse_cmd_options+0x179>
  403525:	48 8b 05 fc 4c 20 00 	mov    0x204cfc(%rip),%rax        # 608228 <optarg@@GLIBC_2.2.5>
  40352c:	ba 7f 00 00 00       	mov    $0x7f,%edx
  403531:	48 89 c6             	mov    %rax,%rsi
  403534:	bf 40 87 60 00       	mov    $0x608740,%edi
  403539:	e8 72 d8 ff ff       	callq  400db0 <strncpy@plt>
  40353e:	c7 45 f0 01 00 00 00 	movl   $0x1,-0x10(%rbp)
  403545:	e9 94 00 00 00       	jmpq   4035de <parse_cmd_options+0x179>
  40354a:	48 8b 05 d7 4c 20 00 	mov    0x204cd7(%rip),%rax        # 608228 <optarg@@GLIBC_2.2.5>
  403551:	ba d4 87 60 00       	mov    $0x6087d4,%edx
  403556:	be 58 5f 40 00       	mov    $0x405f58,%esi
  40355b:	48 89 c7             	mov    %rax,%rdi
  40355e:	b8 00 00 00 00       	mov    $0x0,%eax
  403563:	e8 a8 d9 ff ff       	callq  400f10 <__isoc99_sscanf@plt>
  403568:	83 f8 01             	cmp    $0x1,%eax
  40356b:	74 0a                	je     403577 <parse_cmd_options+0x112>
  40356d:	bf 01 00 00 00       	mov    $0x1,%edi
  403572:	e8 c0 fe ff ff       	callq  403437 <usage_exit>
  403577:	c7 45 f4 01 00 00 00 	movl   $0x1,-0xc(%rbp)
  40357e:	eb 5e                	jmp    4035de <parse_cmd_options+0x179>
  403580:	48 8b 05 a1 4c 20 00 	mov    0x204ca1(%rip),%rax        # 608228 <optarg@@GLIBC_2.2.5>
  403587:	ba 20 87 60 00       	mov    $0x608720,%edx
  40358c:	be 5c 5f 40 00       	mov    $0x405f5c,%esi
  403591:	48 89 c7             	mov    %rax,%rdi
  403594:	b8 00 00 00 00       	mov    $0x0,%eax
  403599:	e8 72 d9 ff ff       	callq  400f10 <__isoc99_sscanf@plt>
  40359e:	83 f8 01             	cmp    $0x1,%eax
  4035a1:	74 0c                	je     4035af <parse_cmd_options+0x14a>
  4035a3:	bf 01 00 00 00       	mov    $0x1,%edi
  4035a8:	e8 8a fe ff ff       	callq  403437 <usage_exit>
  4035ad:	eb 2f                	jmp    4035de <parse_cmd_options+0x179>
  4035af:	eb 2d                	jmp    4035de <parse_cmd_options+0x179>
  4035b1:	b8 00 00 00 00       	mov    $0x0,%eax
  4035b6:	e8 53 fe ff ff       	callq  40340e <print_version>
  4035bb:	bf 00 00 00 00       	mov    $0x0,%edi
  4035c0:	e8 72 fe ff ff       	callq  403437 <usage_exit>
  4035c5:	eb 17                	jmp    4035de <parse_cmd_options+0x179>
  4035c7:	bf 00 00 00 00       	mov    $0x0,%edi
  4035cc:	e8 66 fe ff ff       	callq  403437 <usage_exit>
  4035d1:	eb 0b                	jmp    4035de <parse_cmd_options+0x179>
  4035d3:	bf 01 00 00 00       	mov    $0x1,%edi
  4035d8:	e8 5a fe ff ff       	callq  403437 <usage_exit>
  4035dd:	90                   	nop
  4035de:	48 8b 55 f8          	mov    -0x8(%rbp),%rdx
  4035e2:	48 8b 4d d0          	mov    -0x30(%rbp),%rcx
  4035e6:	8b 45 dc             	mov    -0x24(%rbp),%eax
  4035e9:	48 89 ce             	mov    %rcx,%rsi
  4035ec:	89 c7                	mov    %eax,%edi
  4035ee:	e8 5d d9 ff ff       	callq  400f50 <getopt@plt>
  4035f3:	88 45 ef             	mov    %al,-0x11(%rbp)
  4035f6:	80 7d ef ff          	cmpb   $0xff,-0x11(%rbp)
  4035fa:	0f 85 8f fe ff ff    	jne    40348f <parse_cmd_options+0x2a>
  403600:	8b 05 7a 4c 20 00    	mov    0x204c7a(%rip),%eax        # 608280 <pcap_type>
  403606:	85 c0                	test   %eax,%eax
  403608:	74 0c                	je     403616 <parse_cmd_options+0x1b1>
  40360a:	83 7d f0 00          	cmpl   $0x0,-0x10(%rbp)
  40360e:	74 06                	je     403616 <parse_cmd_options+0x1b1>
  403610:	83 7d f4 00          	cmpl   $0x0,-0xc(%rbp)
  403614:	75 0a                	jne    403620 <parse_cmd_options+0x1bb>
  403616:	bf 01 00 00 00       	mov    $0x1,%edi
  40361b:	e8 17 fe ff ff       	callq  403437 <usage_exit>
  403620:	c9                   	leaveq 
  403621:	c3                   	retq   

0000000000403622 <before>:
  403622:	55                   	push   %rbp
  403623:	48 89 e5             	mov    %rsp,%rbp
  403626:	89 7d fc             	mov    %edi,-0x4(%rbp)
  403629:	89 75 f8             	mov    %esi,-0x8(%rbp)
  40362c:	8b 45 f8             	mov    -0x8(%rbp),%eax
  40362f:	8b 55 fc             	mov    -0x4(%rbp),%edx
  403632:	29 c2                	sub    %eax,%edx
  403634:	89 d0                	mov    %edx,%eax
  403636:	c1 e8 1f             	shr    $0x1f,%eax
  403639:	0f b6 c0             	movzbl %al,%eax
  40363c:	5d                   	pop    %rbp
  40363d:	c3                   	retq   

000000000040363e <init_list_head>:
  40363e:	55                   	push   %rbp
  40363f:	48 89 e5             	mov    %rsp,%rbp
  403642:	48 89 7d f8          	mov    %rdi,-0x8(%rbp)
  403646:	48 8b 45 f8          	mov    -0x8(%rbp),%rax
  40364a:	48 8b 55 f8          	mov    -0x8(%rbp),%rdx
  40364e:	48 89 50 08          	mov    %rdx,0x8(%rax)
  403652:	48 8b 45 f8          	mov    -0x8(%rbp),%rax
  403656:	48 8b 50 08          	mov    0x8(%rax),%rdx
  40365a:	48 8b 45 f8          	mov    -0x8(%rbp),%rax
  40365e:	48 89 10             	mov    %rdx,(%rax)
  403661:	5d                   	pop    %rbp
  403662:	c3                   	retq   

0000000000403663 <list_insert>:
  403663:	55                   	push   %rbp
  403664:	48 89 e5             	mov    %rsp,%rbp
  403667:	48 89 7d f8          	mov    %rdi,-0x8(%rbp)
  40366b:	48 89 75 f0          	mov    %rsi,-0x10(%rbp)
  40366f:	48 89 55 e8          	mov    %rdx,-0x18(%rbp)
  403673:	48 8b 45 e8          	mov    -0x18(%rbp),%rax
  403677:	48 8b 55 f8          	mov    -0x8(%rbp),%rdx
  40367b:	48 89 50 08          	mov    %rdx,0x8(%rax)
  40367f:	48 8b 45 f0          	mov    -0x10(%rbp),%rax
  403683:	48 8b 55 f8          	mov    -0x8(%rbp),%rdx
  403687:	48 89 10             	mov    %rdx,(%rax)
  40368a:	48 8b 45 f8          	mov    -0x8(%rbp),%rax
  40368e:	48 8b 55 e8          	mov    -0x18(%rbp),%rdx
  403692:	48 89 10             	mov    %rdx,(%rax)
  403695:	48 8b 45 f8          	mov    -0x8(%rbp),%rax
  403699:	48 8b 55 f0          	mov    -0x10(%rbp),%rdx
  40369d:	48 89 50 08          	mov    %rdx,0x8(%rax)
  4036a1:	5d                   	pop    %rbp
  4036a2:	c3                   	retq   

00000000004036a3 <list_delete_entry>:
  4036a3:	55                   	push   %rbp
  4036a4:	48 89 e5             	mov    %rsp,%rbp
  4036a7:	48 89 7d f8          	mov    %rdi,-0x8(%rbp)
  4036ab:	48 8b 45 f8          	mov    -0x8(%rbp),%rax
  4036af:	48 8b 00             	mov    (%rax),%rax
  4036b2:	48 8b 55 f8          	mov    -0x8(%rbp),%rdx
  4036b6:	48 8b 52 08          	mov    0x8(%rdx),%rdx
  4036ba:	48 89 50 08          	mov    %rdx,0x8(%rax)
  4036be:	48 8b 45 f8          	mov    -0x8(%rbp),%rax
  4036c2:	48 8b 40 08          	mov    0x8(%rax),%rax
  4036c6:	48 8b 55 f8          	mov    -0x8(%rbp),%rdx
  4036ca:	48 8b 12             	mov    (%rdx),%rdx
  4036cd:	48 89 10             	mov    %rdx,(%rax)
  4036d0:	5d                   	pop    %rbp
  4036d1:	c3                   	retq   

00000000004036d2 <new_tcp_state>:
  4036d2:	55                   	push   %rbp
  4036d3:	48 89 e5             	mov    %rsp,%rbp
  4036d6:	53                   	push   %rbx
  4036d7:	48 83 ec 28          	sub    $0x28,%rsp
  4036db:	48 89 7d d8          	mov    %rdi,-0x28(%rbp)
  4036df:	f2 0f 11 45 d0       	movsd  %xmm0,-0x30(%rbp)
  4036e4:	bf c8 01 00 00       	mov    $0x1c8,%edi
  4036e9:	e8 73 19 00 00       	callq  405061 <my_malloc>
  4036ee:	48 89 45 e0          	mov    %rax,-0x20(%rbp)
  4036f2:	48 8b 45 e0          	mov    -0x20(%rbp),%rax
  4036f6:	48 89 45 e8          	mov    %rax,-0x18(%rbp)
  4036fa:	48 8b 45 e8          	mov    -0x18(%rbp),%rax
  4036fe:	48 8b 4d d8          	mov    -0x28(%rbp),%rcx
  403702:	ba 0c 00 00 00       	mov    $0xc,%edx
  403707:	48 89 ce             	mov    %rcx,%rsi
  40370a:	48 89 c7             	mov    %rax,%rdi
  40370d:	e8 ce d7 ff ff       	callq  400ee0 <memcpy@plt>
  403712:	48 8b 45 d8          	mov    -0x28(%rbp),%rax
  403716:	0f b7 40 0a          	movzwl 0xa(%rax),%eax
  40371a:	0f b7 c0             	movzwl %ax,%eax
  40371d:	89 c7                	mov    %eax,%edi
  40371f:	e8 1c d8 ff ff       	callq  400f40 <ntohs@plt>
  403724:	0f b7 d8             	movzwl %ax,%ebx
  403727:	48 8b 45 d8          	mov    -0x28(%rbp),%rax
  40372b:	8b 40 04             	mov    0x4(%rax),%eax
  40372e:	89 c7                	mov    %eax,%edi
  403730:	e8 ab d6 ff ff       	callq  400de0 <inet_ntoa@plt>
  403735:	48 8b 55 e8          	mov    -0x18(%rbp),%rdx
  403739:	48 8d 7a 0c          	lea    0xc(%rdx),%rdi
  40373d:	89 d9                	mov    %ebx,%ecx
  40373f:	48 89 c2             	mov    %rax,%rdx
  403742:	be 1c 60 40 00       	mov    $0x40601c,%esi
  403747:	b8 00 00 00 00       	mov    $0x0,%eax
  40374c:	e8 1f d8 ff ff       	callq  400f70 <sprintf@plt>
  403751:	48 8b 45 e8          	mov    -0x18(%rbp),%rax
  403755:	c7 80 90 00 00 00 00 	movl   $0x0,0x90(%rax)
  40375c:	00 00 00 
  40375f:	48 8b 45 e8          	mov    -0x18(%rbp),%rax
  403763:	48 05 b4 01 00 00    	add    $0x1b4,%rax
  403769:	48 89 c7             	mov    %rax,%rdi
  40376c:	e8 4c d9 ff ff       	callq  4010bd <init_rtt>
  403771:	48 8b 45 e8          	mov    -0x18(%rbp),%rax
  403775:	48 05 30 01 00 00    	add    $0x130,%rax
  40377b:	48 89 c7             	mov    %rax,%rdi
  40377e:	e8 bb fe ff ff       	callq  40363e <init_list_head>
  403783:	48 8b 45 e8          	mov    -0x18(%rbp),%rax
  403787:	48 05 40 01 00 00    	add    $0x140,%rax
  40378d:	48 89 c7             	mov    %rax,%rdi
  403790:	e8 a9 fe ff ff       	callq  40363e <init_list_head>
  403795:	48 8b 45 e8          	mov    -0x18(%rbp),%rax
  403799:	48 05 50 01 00 00    	add    $0x150,%rax
  40379f:	48 89 c7             	mov    %rax,%rdi
  4037a2:	e8 97 fe ff ff       	callq  40363e <init_list_head>
  4037a7:	48 8b 45 e8          	mov    -0x18(%rbp),%rax
  4037ab:	48 05 60 01 00 00    	add    $0x160,%rax
  4037b1:	48 89 c7             	mov    %rax,%rdi
  4037b4:	e8 85 fe ff ff       	callq  40363e <init_list_head>
  4037b9:	48 8b 45 e8          	mov    -0x18(%rbp),%rax
  4037bd:	48 05 70 01 00 00    	add    $0x170,%rax
  4037c3:	48 89 c7             	mov    %rax,%rdi
  4037c6:	e8 73 fe ff ff       	callq  40363e <init_list_head>
  4037cb:	48 8b 45 e8          	mov    -0x18(%rbp),%rax
  4037cf:	48 05 80 01 00 00    	add    $0x180,%rax
  4037d5:	48 89 c7             	mov    %rax,%rdi
  4037d8:	e8 61 fe ff ff       	callq  40363e <init_list_head>
  4037dd:	48 8b 45 e8          	mov    -0x18(%rbp),%rax
  4037e1:	48 05 90 01 00 00    	add    $0x190,%rax
  4037e7:	48 89 c7             	mov    %rax,%rdi
  4037ea:	e8 4f fe ff ff       	callq  40363e <init_list_head>
  4037ef:	48 8b 45 e8          	mov    -0x18(%rbp),%rax
  4037f3:	48 05 a0 01 00 00    	add    $0x1a0,%rax
  4037f9:	48 89 c7             	mov    %rax,%rdi
  4037fc:	e8 3d fe ff ff       	callq  40363e <init_list_head>
  403801:	b8 00 00 00 00       	mov    $0x0,%eax
  403806:	e8 e1 f8 ff ff       	callq  4030ec <new_rtt_hash_table>
  40380b:	48 8b 55 e8          	mov    -0x18(%rbp),%rdx
  40380f:	48 89 82 c0 01 00 00 	mov    %rax,0x1c0(%rdx)
  403816:	48 8b 45 e8          	mov    -0x18(%rbp),%rax
  40381a:	48 83 c4 28          	add    $0x28,%rsp
  40381e:	5b                   	pop    %rbx
  40381f:	5d                   	pop    %rbp
  403820:	c3                   	retq   

0000000000403821 <update_retrans_and_reorder>:
  403821:	55                   	push   %rbp
  403822:	48 89 e5             	mov    %rsp,%rbp
  403825:	48 83 ec 30          	sub    $0x30,%rsp
  403829:	48 89 7d d8          	mov    %rdi,-0x28(%rbp)
  40382d:	89 75 d4             	mov    %esi,-0x2c(%rbp)
  403830:	48 8b 45 d8          	mov    -0x28(%rbp),%rax
  403834:	48 8d 90 50 01 00 00 	lea    0x150(%rax),%rdx
  40383b:	8b 45 d4             	mov    -0x2c(%rbp),%eax
  40383e:	89 c6                	mov    %eax,%esi
  403840:	48 89 d7             	mov    %rdx,%rdi
  403843:	e8 16 f3 ff ff       	callq  402b5e <find_node_by_seq>
  403848:	48 89 45 f0          	mov    %rax,-0x10(%rbp)
  40384c:	48 83 7d f0 00       	cmpq   $0x0,-0x10(%rbp)
  403851:	74 52                	je     4038a5 <update_retrans_and_reorder+0x84>
  403853:	48 8b 45 f0          	mov    -0x10(%rbp),%rax
  403857:	48 83 e8 08          	sub    $0x8,%rax
  40385b:	48 89 45 f8          	mov    %rax,-0x8(%rbp)
  40385f:	48 8b 45 f8          	mov    -0x8(%rbp),%rax
  403863:	8b 00                	mov    (%rax),%eax
  403865:	89 45 e8             	mov    %eax,-0x18(%rbp)
  403868:	48 8b 45 f8          	mov    -0x8(%rbp),%rax
  40386c:	8b 40 04             	mov    0x4(%rax),%eax
  40386f:	89 45 ec             	mov    %eax,-0x14(%rbp)
  403872:	48 8b 45 f8          	mov    -0x8(%rbp),%rax
  403876:	48 89 c7             	mov    %rax,%rdi
  403879:	e8 3a 18 00 00       	callq  4050b8 <my_free>
  40387e:	48 8b 45 f0          	mov    -0x10(%rbp),%rax
  403882:	48 89 c7             	mov    %rax,%rdi
  403885:	e8 19 fe ff ff       	callq  4036a3 <list_delete_entry>
  40388a:	48 8b 45 d8          	mov    -0x28(%rbp),%rax
  40388e:	48 8d 88 50 01 00 00 	lea    0x150(%rax),%rcx
  403895:	8b 55 ec             	mov    -0x14(%rbp),%edx
  403898:	8b 45 e8             	mov    -0x18(%rbp),%eax
  40389b:	89 c6                	mov    %eax,%esi
  40389d:	48 89 cf             	mov    %rcx,%rdi
  4038a0:	e8 1f f0 ff ff       	callq  4028c4 <append_to_range_list>
  4038a5:	c9                   	leaveq 
  4038a6:	c3                   	retq   

00000000004038a7 <get_first_ack_time>:
  4038a7:	55                   	push   %rbp
  4038a8:	48 89 e5             	mov    %rsp,%rbp
  4038ab:	48 89 7d d8          	mov    %rdi,-0x28(%rbp)
  4038af:	89 75 d4             	mov    %esi,-0x2c(%rbp)
  4038b2:	48 8b 45 d8          	mov    -0x28(%rbp),%rax
  4038b6:	48 8b 40 08          	mov    0x8(%rax),%rax
  4038ba:	48 89 45 e0          	mov    %rax,-0x20(%rbp)
  4038be:	eb 50                	jmp    403910 <get_first_ack_time+0x69>
  4038c0:	48 8b 45 e0          	mov    -0x20(%rbp),%rax
  4038c4:	48 83 e8 10          	sub    $0x10,%rax
  4038c8:	48 89 45 e8          	mov    %rax,-0x18(%rbp)
  4038cc:	48 8b 45 e0          	mov    -0x20(%rbp),%rax
  4038d0:	48 8b 40 08          	mov    0x8(%rax),%rax
  4038d4:	48 89 45 f0          	mov    %rax,-0x10(%rbp)
  4038d8:	48 8b 45 f0          	mov    -0x10(%rbp),%rax
  4038dc:	48 83 e8 10          	sub    $0x10,%rax
  4038e0:	48 89 45 f8          	mov    %rax,-0x8(%rbp)
  4038e4:	48 8b 45 e8          	mov    -0x18(%rbp),%rax
  4038e8:	8b 00                	mov    (%rax),%eax
  4038ea:	3b 45 d4             	cmp    -0x2c(%rbp),%eax
  4038ed:	76 15                	jbe    403904 <get_first_ack_time+0x5d>
  4038ef:	48 8b 45 f8          	mov    -0x8(%rbp),%rax
  4038f3:	8b 00                	mov    (%rax),%eax
  4038f5:	3b 45 d4             	cmp    -0x2c(%rbp),%eax
  4038f8:	77 0a                	ja     403904 <get_first_ack_time+0x5d>
  4038fa:	48 8b 45 e8          	mov    -0x18(%rbp),%rax
  4038fe:	48 8b 40 08          	mov    0x8(%rax),%rax
  403902:	eb 1b                	jmp    40391f <get_first_ack_time+0x78>
  403904:	48 8b 45 e0          	mov    -0x20(%rbp),%rax
  403908:	48 8b 40 08          	mov    0x8(%rax),%rax
  40390c:	48 89 45 e0          	mov    %rax,-0x20(%rbp)
  403910:	48 8b 45 e0          	mov    -0x20(%rbp),%rax
  403914:	48 3b 45 d8          	cmp    -0x28(%rbp),%rax
  403918:	75 a6                	jne    4038c0 <get_first_ack_time+0x19>
  40391a:	b8 00 00 00 00       	mov    $0x0,%eax
  40391f:	48 89 45 c8          	mov    %rax,-0x38(%rbp)
  403923:	f2 0f 10 45 c8       	movsd  -0x38(%rbp),%xmm0
  403928:	5d                   	pop    %rbp
  403929:	c3                   	retq   

000000000040392a <get_ack_delay_time>:
  40392a:	55                   	push   %rbp
  40392b:	48 89 e5             	mov    %rsp,%rbp
  40392e:	48 83 ec 40          	sub    $0x40,%rsp
  403932:	48 89 7d d8          	mov    %rdi,-0x28(%rbp)
  403936:	89 75 d4             	mov    %esi,-0x2c(%rbp)
  403939:	48 8b 45 d8          	mov    -0x28(%rbp),%rax
  40393d:	48 8d 90 70 01 00 00 	lea    0x170(%rax),%rdx
  403944:	8b 45 d4             	mov    -0x2c(%rbp),%eax
  403947:	89 c6                	mov    %eax,%esi
  403949:	48 89 d7             	mov    %rdx,%rdi
  40394c:	e8 0d f2 ff ff       	callq  402b5e <find_node_by_seq>
  403951:	48 89 45 e8          	mov    %rax,-0x18(%rbp)
  403955:	48 83 7d e8 00       	cmpq   $0x0,-0x18(%rbp)
  40395a:	74 4e                	je     4039aa <get_ack_delay_time+0x80>
  40395c:	48 8b 45 e8          	mov    -0x18(%rbp),%rax
  403960:	48 83 e8 10          	sub    $0x10,%rax
  403964:	48 89 45 f0          	mov    %rax,-0x10(%rbp)
  403968:	48 8b 45 d8          	mov    -0x28(%rbp),%rax
  40396c:	48 8d 90 80 01 00 00 	lea    0x180(%rax),%rdx
  403973:	8b 45 d4             	mov    -0x2c(%rbp),%eax
  403976:	89 c6                	mov    %eax,%esi
  403978:	48 89 d7             	mov    %rdx,%rdi
  40397b:	e8 27 ff ff ff       	callq  4038a7 <get_first_ack_time>
  403980:	f2 0f 11 45 c8       	movsd  %xmm0,-0x38(%rbp)
  403985:	48 8b 45 c8          	mov    -0x38(%rbp),%rax
  403989:	48 89 45 f8          	mov    %rax,-0x8(%rbp)
  40398d:	48 8b 45 f0          	mov    -0x10(%rbp),%rax
  403991:	f2 0f 10 48 08       	movsd  0x8(%rax),%xmm1
  403996:	f2 0f 10 45 f8       	movsd  -0x8(%rbp),%xmm0
  40399b:	f2 0f 5c c1          	subsd  %xmm1,%xmm0
  40399f:	f2 0f 11 45 c8       	movsd  %xmm0,-0x38(%rbp)
  4039a4:	48 8b 45 c8          	mov    -0x38(%rbp),%rax
  4039a8:	eb 05                	jmp    4039af <get_ack_delay_time+0x85>
  4039aa:	b8 00 00 00 00       	mov    $0x0,%eax
  4039af:	48 89 45 c8          	mov    %rax,-0x38(%rbp)
  4039b3:	f2 0f 10 45 c8       	movsd  -0x38(%rbp),%xmm0
  4039b8:	c9                   	leaveq 
  4039b9:	c3                   	retq   

00000000004039ba <get_third_seq>:
  4039ba:	55                   	push   %rbp
  4039bb:	48 89 e5             	mov    %rsp,%rbp
  4039be:	48 89 7d d8          	mov    %rdi,-0x28(%rbp)
  4039c2:	c7 45 ec 00 00 00 00 	movl   $0x0,-0x14(%rbp)
  4039c9:	48 8b 45 d8          	mov    -0x28(%rbp),%rax
  4039cd:	48 8b 00             	mov    (%rax),%rax
  4039d0:	48 89 45 f0          	mov    %rax,-0x10(%rbp)
  4039d4:	eb 29                	jmp    4039ff <get_third_seq+0x45>
  4039d6:	83 45 ec 01          	addl   $0x1,-0x14(%rbp)
  4039da:	83 7d ec 03          	cmpl   $0x3,-0x14(%rbp)
  4039de:	75 14                	jne    4039f4 <get_third_seq+0x3a>
  4039e0:	48 8b 45 f0          	mov    -0x10(%rbp),%rax
  4039e4:	48 83 e8 08          	sub    $0x8,%rax
  4039e8:	48 89 45 f8          	mov    %rax,-0x8(%rbp)
  4039ec:	48 8b 45 f8          	mov    -0x8(%rbp),%rax
  4039f0:	8b 00                	mov    (%rax),%eax
  4039f2:	eb 1a                	jmp    403a0e <get_third_seq+0x54>
  4039f4:	48 8b 45 f0          	mov    -0x10(%rbp),%rax
  4039f8:	48 8b 00             	mov    (%rax),%rax
  4039fb:	48 89 45 f0          	mov    %rax,-0x10(%rbp)
  4039ff:	48 8b 45 f0          	mov    -0x10(%rbp),%rax
  403a03:	48 3b 45 d8          	cmp    -0x28(%rbp),%rax
  403a07:	75 cd                	jne    4039d6 <get_third_seq+0x1c>
  403a09:	b8 00 00 00 00       	mov    $0x0,%eax
  403a0e:	5d                   	pop    %rbp
  403a0f:	c3                   	retq   

0000000000403a10 <get_reorder>:
  403a10:	55                   	push   %rbp
  403a11:	48 89 e5             	mov    %rsp,%rbp
  403a14:	48 83 ec 30          	sub    $0x30,%rsp
  403a18:	89 7d ec             	mov    %edi,-0x14(%rbp)
  403a1b:	48 89 75 e0          	mov    %rsi,-0x20(%rbp)
  403a1f:	48 89 55 d8          	mov    %rdx,-0x28(%rbp)
  403a23:	48 89 4d d0          	mov    %rcx,-0x30(%rbp)
  403a27:	48 8b 45 e0          	mov    -0x20(%rbp),%rax
  403a2b:	48 8b 00             	mov    (%rax),%rax
  403a2e:	48 89 45 f0          	mov    %rax,-0x10(%rbp)
  403a32:	48 8b 45 d8          	mov    -0x28(%rbp),%rax
  403a36:	8b 55 ec             	mov    -0x14(%rbp),%edx
  403a39:	89 10                	mov    %edx,(%rax)
  403a3b:	48 8b 45 d0          	mov    -0x30(%rbp),%rax
  403a3f:	8b 55 ec             	mov    -0x14(%rbp),%edx
  403a42:	89 10                	mov    %edx,(%rax)
  403a44:	eb 63                	jmp    403aa9 <get_reorder+0x99>
  403a46:	48 8b 45 f0          	mov    -0x10(%rbp),%rax
  403a4a:	48 83 e8 08          	sub    $0x8,%rax
  403a4e:	48 89 45 f8          	mov    %rax,-0x8(%rbp)
  403a52:	48 8b 45 d8          	mov    -0x28(%rbp),%rax
  403a56:	8b 10                	mov    (%rax),%edx
  403a58:	48 8b 45 f8          	mov    -0x8(%rbp),%rax
  403a5c:	8b 00                	mov    (%rax),%eax
  403a5e:	89 d6                	mov    %edx,%esi
  403a60:	89 c7                	mov    %eax,%edi
  403a62:	e8 bb fb ff ff       	callq  403622 <before>
  403a67:	85 c0                	test   %eax,%eax
  403a69:	74 0c                	je     403a77 <get_reorder+0x67>
  403a6b:	48 8b 45 f8          	mov    -0x8(%rbp),%rax
  403a6f:	8b 10                	mov    (%rax),%edx
  403a71:	48 8b 45 d8          	mov    -0x28(%rbp),%rax
  403a75:	89 10                	mov    %edx,(%rax)
  403a77:	48 8b 45 f8          	mov    -0x8(%rbp),%rax
  403a7b:	8b 50 04             	mov    0x4(%rax),%edx
  403a7e:	48 8b 45 d0          	mov    -0x30(%rbp),%rax
  403a82:	8b 00                	mov    (%rax),%eax
  403a84:	89 d6                	mov    %edx,%esi
  403a86:	89 c7                	mov    %eax,%edi
  403a88:	e8 95 fb ff ff       	callq  403622 <before>
  403a8d:	85 c0                	test   %eax,%eax
  403a8f:	74 0d                	je     403a9e <get_reorder+0x8e>
  403a91:	48 8b 45 f8          	mov    -0x8(%rbp),%rax
  403a95:	8b 50 04             	mov    0x4(%rax),%edx
  403a98:	48 8b 45 d0          	mov    -0x30(%rbp),%rax
  403a9c:	89 10                	mov    %edx,(%rax)
  403a9e:	48 8b 45 f0          	mov    -0x10(%rbp),%rax
  403aa2:	48 8b 00             	mov    (%rax),%rax
  403aa5:	48 89 45 f0          	mov    %rax,-0x10(%rbp)
  403aa9:	48 8b 45 f0          	mov    -0x10(%rbp),%rax
  403aad:	48 3b 45 e0          	cmp    -0x20(%rbp),%rax
  403ab1:	75 93                	jne    403a46 <get_reorder+0x36>
  403ab3:	48 8b 45 d0          	mov    -0x30(%rbp),%rax
  403ab7:	8b 10                	mov    (%rax),%edx
  403ab9:	48 8b 45 d8          	mov    -0x28(%rbp),%rax
  403abd:	8b 00                	mov    (%rax),%eax
  403abf:	29 c2                	sub    %eax,%edx
  403ac1:	89 d0                	mov    %edx,%eax
  403ac3:	c9                   	leaveq 
  403ac4:	c3                   	retq   

0000000000403ac5 <get_retrans>:
  403ac5:	55                   	push   %rbp
  403ac6:	48 89 e5             	mov    %rsp,%rbp
  403ac9:	48 89 7d e8          	mov    %rdi,-0x18(%rbp)
  403acd:	89 75 e4             	mov    %esi,-0x1c(%rbp)
  403ad0:	48 89 55 d8          	mov    %rdx,-0x28(%rbp)
  403ad4:	48 89 4d d0          	mov    %rcx,-0x30(%rbp)
  403ad8:	4c 89 45 c8          	mov    %r8,-0x38(%rbp)
  403adc:	48 8b 45 d8          	mov    -0x28(%rbp),%rax
  403ae0:	48 89 45 f0          	mov    %rax,-0x10(%rbp)
  403ae4:	48 8b 45 d8          	mov    -0x28(%rbp),%rax
  403ae8:	48 83 e8 08          	sub    $0x8,%rax
  403aec:	48 89 45 f8          	mov    %rax,-0x8(%rbp)
  403af0:	48 8b 45 d0          	mov    -0x30(%rbp),%rax
  403af4:	8b 55 e4             	mov    -0x1c(%rbp),%edx
  403af7:	89 10                	mov    %edx,(%rax)
  403af9:	48 8b 45 f8          	mov    -0x8(%rbp),%rax
  403afd:	8b 10                	mov    (%rax),%edx
  403aff:	48 8b 45 c8          	mov    -0x38(%rbp),%rax
  403b03:	89 10                	mov    %edx,(%rax)
  403b05:	48 8b 45 d8          	mov    -0x28(%rbp),%rax
  403b09:	48 8b 00             	mov    (%rax),%rax
  403b0c:	48 89 45 f0          	mov    %rax,-0x10(%rbp)
  403b10:	eb 2e                	jmp    403b40 <get_retrans+0x7b>
  403b12:	48 8b 45 f0          	mov    -0x10(%rbp),%rax
  403b16:	48 83 e8 08          	sub    $0x8,%rax
  403b1a:	48 89 45 f8          	mov    %rax,-0x8(%rbp)
  403b1e:	48 8b 45 c8          	mov    -0x38(%rbp),%rax
  403b22:	8b 10                	mov    (%rax),%edx
  403b24:	48 8b 45 f8          	mov    -0x8(%rbp),%rax
  403b28:	8b 00                	mov    (%rax),%eax
  403b2a:	39 c2                	cmp    %eax,%edx
  403b2c:	0f 47 d0             	cmova  %eax,%edx
  403b2f:	48 8b 45 c8          	mov    -0x38(%rbp),%rax
  403b33:	89 10                	mov    %edx,(%rax)
  403b35:	48 8b 45 f0          	mov    -0x10(%rbp),%rax
  403b39:	48 8b 00             	mov    (%rax),%rax
  403b3c:	48 89 45 f0          	mov    %rax,-0x10(%rbp)
  403b40:	48 8b 45 f0          	mov    -0x10(%rbp),%rax
  403b44:	48 3b 45 d8          	cmp    -0x28(%rbp),%rax
  403b48:	75 c8                	jne    403b12 <get_retrans+0x4d>
  403b4a:	48 8b 45 c8          	mov    -0x38(%rbp),%rax
  403b4e:	8b 10                	mov    (%rax),%edx
  403b50:	48 8b 45 d0          	mov    -0x30(%rbp),%rax
  403b54:	8b 00                	mov    (%rax),%eax
  403b56:	29 c2                	sub    %eax,%edx
  403b58:	89 d0                	mov    %edx,%eax
  403b5a:	5d                   	pop    %rbp
  403b5b:	c3                   	retq   

0000000000403b5c <update_rtt_with_time_stamp>:
  403b5c:	55                   	push   %rbp
  403b5d:	48 89 e5             	mov    %rsp,%rbp
  403b60:	48 83 ec 30          	sub    $0x30,%rsp
  403b64:	89 7d ec             	mov    %edi,-0x14(%rbp)
  403b67:	48 89 75 e0          	mov    %rsi,-0x20(%rbp)
  403b6b:	48 89 55 d8          	mov    %rdx,-0x28(%rbp)
  403b6f:	48 8b 45 e0          	mov    -0x20(%rbp),%rax
  403b73:	8b 90 c0 00 00 00    	mov    0xc0(%rax),%edx
  403b79:	48 8b 45 d8          	mov    -0x28(%rbp),%rax
  403b7d:	8b 40 04             	mov    0x4(%rax),%eax
  403b80:	29 c2                	sub    %eax,%edx
  403b82:	89 d0                	mov    %edx,%eax
  403b84:	89 45 fc             	mov    %eax,-0x4(%rbp)
  403b87:	8b 45 fc             	mov    -0x4(%rbp),%eax
  403b8a:	48 8b 55 e0          	mov    -0x20(%rbp),%rdx
  403b8e:	48 81 c2 b4 01 00 00 	add    $0x1b4,%rdx
  403b95:	89 c6                	mov    %eax,%esi
  403b97:	48 89 d7             	mov    %rdx,%rdi
  403b9a:	e8 4d d5 ff ff       	callq  4010ec <update_rtt>
  403b9f:	c9                   	leaveq 
  403ba0:	c3                   	retq   

0000000000403ba1 <handle_in_pkt>:
  403ba1:	55                   	push   %rbp
  403ba2:	48 89 e5             	mov    %rsp,%rbp
  403ba5:	48 83 ec 70          	sub    $0x70,%rsp
  403ba9:	48 89 7d b8          	mov    %rdi,-0x48(%rbp)
  403bad:	48 89 75 b0          	mov    %rsi,-0x50(%rbp)
  403bb1:	f2 0f 11 45 a8       	movsd  %xmm0,-0x58(%rbp)
  403bb6:	89 55 a4             	mov    %edx,-0x5c(%rbp)
  403bb9:	48 8b 45 b0          	mov    -0x50(%rbp),%rax
  403bbd:	8b 40 04             	mov    0x4(%rax),%eax
  403bc0:	89 c7                	mov    %eax,%edi
  403bc2:	e8 e9 d3 ff ff       	callq  400fb0 <ntohl@plt>
  403bc7:	89 45 d8             	mov    %eax,-0x28(%rbp)
  403bca:	48 8b 45 b0          	mov    -0x50(%rbp),%rax
  403bce:	8b 40 08             	mov    0x8(%rax),%eax
  403bd1:	89 c7                	mov    %eax,%edi
  403bd3:	e8 d8 d3 ff ff       	callq  400fb0 <ntohl@plt>
  403bd8:	89 45 dc             	mov    %eax,-0x24(%rbp)
  403bdb:	48 8b 45 a8          	mov    -0x58(%rbp),%rax
  403bdf:	48 89 45 e8          	mov    %rax,-0x18(%rbp)
  403be3:	c7 45 e0 00 00 00 00 	movl   $0x0,-0x20(%rbp)
  403bea:	48 8b 45 b8          	mov    -0x48(%rbp),%rax
  403bee:	8b 55 dc             	mov    -0x24(%rbp),%edx
  403bf1:	89 90 18 01 00 00    	mov    %edx,0x118(%rax)
  403bf7:	48 8b 45 b8          	mov    -0x48(%rbp),%rax
  403bfb:	8b 55 d8             	mov    -0x28(%rbp),%edx
  403bfe:	89 90 20 01 00 00    	mov    %edx,0x120(%rax)
  403c04:	8b 55 a4             	mov    -0x5c(%rbp),%edx
  403c07:	48 8b 45 b8          	mov    -0x48(%rbp),%rax
  403c0b:	8b 80 10 01 00 00    	mov    0x110(%rax),%eax
  403c11:	39 c2                	cmp    %eax,%edx
  403c13:	0f 42 d0             	cmovb  %eax,%edx
  403c16:	48 8b 45 b8          	mov    -0x48(%rbp),%rax
  403c1a:	89 90 10 01 00 00    	mov    %edx,0x110(%rax)
  403c20:	48 8b 45 b8          	mov    -0x48(%rbp),%rax
  403c24:	8b 80 1c 01 00 00    	mov    0x11c(%rax),%eax
  403c2a:	3b 45 d8             	cmp    -0x28(%rbp),%eax
  403c2d:	0f 83 7f 03 00 00    	jae    403fb2 <handle_in_pkt+0x411>
  403c33:	83 7d d8 01          	cmpl   $0x1,-0x28(%rbp)
  403c37:	0f 86 75 03 00 00    	jbe    403fb2 <handle_in_pkt+0x411>
  403c3d:	8b 55 a4             	mov    -0x5c(%rbp),%edx
  403c40:	8b 45 d8             	mov    -0x28(%rbp),%eax
  403c43:	01 c2                	add    %eax,%edx
  403c45:	48 8b 45 b8          	mov    -0x48(%rbp),%rax
  403c49:	48 8d 88 30 01 00 00 	lea    0x130(%rax),%rcx
  403c50:	8b 45 d8             	mov    -0x28(%rbp),%eax
  403c53:	89 c6                	mov    %eax,%esi
  403c55:	48 89 cf             	mov    %rcx,%rdi
  403c58:	e8 67 ec ff ff       	callq  4028c4 <append_to_range_list>
  403c5d:	48 8b 45 b8          	mov    -0x48(%rbp),%rax
  403c61:	48 8d 90 90 01 00 00 	lea    0x190(%rax),%rdx
  403c68:	48 8b 45 b8          	mov    -0x48(%rbp),%rax
  403c6c:	8b 80 1c 01 00 00    	mov    0x11c(%rax),%eax
  403c72:	48 89 d6             	mov    %rdx,%rsi
  403c75:	89 c7                	mov    %eax,%edi
  403c77:	e8 57 e5 ff ff       	callq  4021d3 <get_time_by_seq>
  403c7c:	66 0f 57 c9          	xorpd  %xmm1,%xmm1
  403c80:	66 0f 2e c1          	ucomisd %xmm1,%xmm0
  403c84:	0f 8a ec 01 00 00    	jp     403e76 <handle_in_pkt+0x2d5>
  403c8a:	66 0f 57 c9          	xorpd  %xmm1,%xmm1
  403c8e:	66 0f 2e c1          	ucomisd %xmm1,%xmm0
  403c92:	0f 85 de 01 00 00    	jne    403e76 <handle_in_pkt+0x2d5>
  403c98:	48 8b 45 b8          	mov    -0x48(%rbp),%rax
  403c9c:	f2 0f 10 98 c8 00 00 	movsd  0xc8(%rax),%xmm3
  403ca3:	00 
  403ca4:	48 8b 45 b8          	mov    -0x48(%rbp),%rax
  403ca8:	f2 0f 10 88 c8 00 00 	movsd  0xc8(%rax),%xmm1
  403caf:	00 
  403cb0:	f2 0f 10 45 a8       	movsd  -0x58(%rbp),%xmm0
  403cb5:	66 0f 28 d0          	movapd %xmm0,%xmm2
  403cb9:	f2 0f 5c d1          	subsd  %xmm1,%xmm2
  403cbd:	48 8b 45 b8          	mov    -0x48(%rbp),%rax
  403cc1:	8b 90 1c 01 00 00    	mov    0x11c(%rax),%edx
  403cc7:	48 8b 45 b8          	mov    -0x48(%rbp),%rax
  403ccb:	8b 80 24 01 00 00    	mov    0x124(%rax),%eax
  403cd1:	29 c2                	sub    %eax,%edx
  403cd3:	89 d0                	mov    %edx,%eax
  403cd5:	89 c0                	mov    %eax,%eax
  403cd7:	48 85 c0             	test   %rax,%rax
  403cda:	78 07                	js     403ce3 <handle_in_pkt+0x142>
  403cdc:	f2 48 0f 2a c0       	cvtsi2sd %rax,%xmm0
  403ce1:	eb 15                	jmp    403cf8 <handle_in_pkt+0x157>
  403ce3:	48 89 c2             	mov    %rax,%rdx
  403ce6:	48 d1 ea             	shr    %rdx
  403ce9:	83 e0 01             	and    $0x1,%eax
  403cec:	48 09 c2             	or     %rax,%rdx
  403cef:	f2 48 0f 2a c2       	cvtsi2sd %rdx,%xmm0
  403cf4:	f2 0f 58 c0          	addsd  %xmm0,%xmm0
  403cf8:	48 8b 45 b8          	mov    -0x48(%rbp),%rax
  403cfc:	8b 80 24 01 00 00    	mov    0x124(%rax),%eax
  403d02:	8b 55 d8             	mov    -0x28(%rbp),%edx
  403d05:	29 c2                	sub    %eax,%edx
  403d07:	89 d0                	mov    %edx,%eax
  403d09:	89 c0                	mov    %eax,%eax
  403d0b:	48 85 c0             	test   %rax,%rax
  403d0e:	78 07                	js     403d17 <handle_in_pkt+0x176>
  403d10:	f2 48 0f 2a c8       	cvtsi2sd %rax,%xmm1
  403d15:	eb 15                	jmp    403d2c <handle_in_pkt+0x18b>
  403d17:	48 89 c2             	mov    %rax,%rdx
  403d1a:	48 d1 ea             	shr    %rdx
  403d1d:	83 e0 01             	and    $0x1,%eax
  403d20:	48 09 c2             	or     %rax,%rdx
  403d23:	f2 48 0f 2a ca       	cvtsi2sd %rdx,%xmm1
  403d28:	f2 0f 58 c9          	addsd  %xmm1,%xmm1
  403d2c:	f2 0f 5e c1          	divsd  %xmm1,%xmm0
  403d30:	f2 0f 59 c2          	mulsd  %xmm2,%xmm0
  403d34:	f2 0f 58 c3          	addsd  %xmm3,%xmm0
  403d38:	f2 0f 11 45 e8       	movsd  %xmm0,-0x18(%rbp)
  403d3d:	48 8b 45 b8          	mov    -0x48(%rbp),%rax
  403d41:	48 8d 88 90 01 00 00 	lea    0x190(%rax),%rcx
  403d48:	48 8b 45 b8          	mov    -0x48(%rbp),%rax
  403d4c:	8b 90 1c 01 00 00    	mov    0x11c(%rax),%edx
  403d52:	48 8b 45 e8          	mov    -0x18(%rbp),%rax
  403d56:	48 89 ce             	mov    %rcx,%rsi
  403d59:	48 89 45 98          	mov    %rax,-0x68(%rbp)
  403d5d:	f2 0f 10 45 98       	movsd  -0x68(%rbp),%xmm0
  403d62:	89 d7                	mov    %edx,%edi
  403d64:	e8 d6 e2 ff ff       	callq  40203f <insert_seq_rtt>
  403d69:	48 8b 45 b8          	mov    -0x48(%rbp),%rax
  403d6d:	8b 80 1c 01 00 00    	mov    0x11c(%rax),%eax
  403d73:	89 45 d0             	mov    %eax,-0x30(%rbp)
  403d76:	e9 d0 00 00 00       	jmpq   403e4b <handle_in_pkt+0x2aa>
  403d7b:	48 8b 45 b8          	mov    -0x48(%rbp),%rax
  403d7f:	f2 0f 10 98 c8 00 00 	movsd  0xc8(%rax),%xmm3
  403d86:	00 
  403d87:	48 8b 45 b8          	mov    -0x48(%rbp),%rax
  403d8b:	f2 0f 10 88 c8 00 00 	movsd  0xc8(%rax),%xmm1
  403d92:	00 
  403d93:	f2 0f 10 45 a8       	movsd  -0x58(%rbp),%xmm0
  403d98:	66 0f 28 d0          	movapd %xmm0,%xmm2
  403d9c:	f2 0f 5c d1          	subsd  %xmm1,%xmm2
  403da0:	48 8b 45 b8          	mov    -0x48(%rbp),%rax
  403da4:	8b 80 24 01 00 00    	mov    0x124(%rax),%eax
  403daa:	8b 55 d0             	mov    -0x30(%rbp),%edx
  403dad:	29 c2                	sub    %eax,%edx
  403daf:	89 d0                	mov    %edx,%eax
  403db1:	89 c0                	mov    %eax,%eax
  403db3:	48 85 c0             	test   %rax,%rax
  403db6:	78 07                	js     403dbf <handle_in_pkt+0x21e>
  403db8:	f2 48 0f 2a c0       	cvtsi2sd %rax,%xmm0
  403dbd:	eb 15                	jmp    403dd4 <handle_in_pkt+0x233>
  403dbf:	48 89 c2             	mov    %rax,%rdx
  403dc2:	48 d1 ea             	shr    %rdx
  403dc5:	83 e0 01             	and    $0x1,%eax
  403dc8:	48 09 c2             	or     %rax,%rdx
  403dcb:	f2 48 0f 2a c2       	cvtsi2sd %rdx,%xmm0
  403dd0:	f2 0f 58 c0          	addsd  %xmm0,%xmm0
  403dd4:	48 8b 45 b8          	mov    -0x48(%rbp),%rax
  403dd8:	8b 80 24 01 00 00    	mov    0x124(%rax),%eax
  403dde:	8b 55 d8             	mov    -0x28(%rbp),%edx
  403de1:	29 c2                	sub    %eax,%edx
  403de3:	89 d0                	mov    %edx,%eax
  403de5:	89 c0                	mov    %eax,%eax
  403de7:	48 85 c0             	test   %rax,%rax
  403dea:	78 07                	js     403df3 <handle_in_pkt+0x252>
  403dec:	f2 48 0f 2a c8       	cvtsi2sd %rax,%xmm1
  403df1:	eb 15                	jmp    403e08 <handle_in_pkt+0x267>
  403df3:	48 89 c2             	mov    %rax,%rdx
  403df6:	48 d1 ea             	shr    %rdx
  403df9:	83 e0 01             	and    $0x1,%eax
  403dfc:	48 09 c2             	or     %rax,%rdx
  403dff:	f2 48 0f 2a ca       	cvtsi2sd %rdx,%xmm1
  403e04:	f2 0f 58 c9          	addsd  %xmm1,%xmm1
  403e08:	f2 0f 5e c1          	divsd  %xmm1,%xmm0
  403e0c:	f2 0f 59 c2          	mulsd  %xmm2,%xmm0
  403e10:	f2 0f 58 c3          	addsd  %xmm3,%xmm0
  403e14:	f2 0f 11 45 e8       	movsd  %xmm0,-0x18(%rbp)
  403e19:	48 8b 45 b8          	mov    -0x48(%rbp),%rax
  403e1d:	48 8d 88 90 01 00 00 	lea    0x190(%rax),%rcx
  403e24:	48 8b 45 e8          	mov    -0x18(%rbp),%rax
  403e28:	8b 55 d0             	mov    -0x30(%rbp),%edx
  403e2b:	48 89 ce             	mov    %rcx,%rsi
  403e2e:	48 89 45 98          	mov    %rax,-0x68(%rbp)
  403e32:	f2 0f 10 45 98       	movsd  -0x68(%rbp),%xmm0
  403e37:	89 d7                	mov    %edx,%edi
  403e39:	e8 01 e2 ff ff       	callq  40203f <insert_seq_rtt>
  403e3e:	48 8b 45 b8          	mov    -0x48(%rbp),%rax
  403e42:	8b 80 10 01 00 00    	mov    0x110(%rax),%eax
  403e48:	01 45 d0             	add    %eax,-0x30(%rbp)
  403e4b:	48 8b 45 b8          	mov    -0x48(%rbp),%rax
  403e4f:	8b 80 10 01 00 00    	mov    0x110(%rax),%eax
  403e55:	85 c0                	test   %eax,%eax
  403e57:	74 18                	je     403e71 <handle_in_pkt+0x2d0>
  403e59:	48 8b 45 b8          	mov    -0x48(%rbp),%rax
  403e5d:	8b 90 10 01 00 00    	mov    0x110(%rax),%edx
  403e63:	8b 45 d0             	mov    -0x30(%rbp),%eax
  403e66:	01 d0                	add    %edx,%eax
  403e68:	3b 45 d8             	cmp    -0x28(%rbp),%eax
  403e6b:	0f 82 0a ff ff ff    	jb     403d7b <handle_in_pkt+0x1da>
  403e71:	e9 37 01 00 00       	jmpq   403fad <handle_in_pkt+0x40c>
  403e76:	48 8b 45 b8          	mov    -0x48(%rbp),%rax
  403e7a:	8b 80 10 01 00 00    	mov    0x110(%rax),%eax
  403e80:	85 c0                	test   %eax,%eax
  403e82:	0f 84 25 01 00 00    	je     403fad <handle_in_pkt+0x40c>
  403e88:	48 8b 45 b8          	mov    -0x48(%rbp),%rax
  403e8c:	8b 90 24 01 00 00    	mov    0x124(%rax),%edx
  403e92:	48 8b 45 b8          	mov    -0x48(%rbp),%rax
  403e96:	8b 80 10 01 00 00    	mov    0x110(%rax),%eax
  403e9c:	01 d0                	add    %edx,%eax
  403e9e:	3b 45 d8             	cmp    -0x28(%rbp),%eax
  403ea1:	0f 83 06 01 00 00    	jae    403fad <handle_in_pkt+0x40c>
  403ea7:	48 8b 45 b8          	mov    -0x48(%rbp),%rax
  403eab:	8b 90 24 01 00 00    	mov    0x124(%rax),%edx
  403eb1:	48 8b 45 b8          	mov    -0x48(%rbp),%rax
  403eb5:	8b 80 10 01 00 00    	mov    0x110(%rax),%eax
  403ebb:	01 d0                	add    %edx,%eax
  403ebd:	89 45 d4             	mov    %eax,-0x2c(%rbp)
  403ec0:	e9 d0 00 00 00       	jmpq   403f95 <handle_in_pkt+0x3f4>
  403ec5:	48 8b 45 b8          	mov    -0x48(%rbp),%rax
  403ec9:	f2 0f 10 98 c8 00 00 	movsd  0xc8(%rax),%xmm3
  403ed0:	00 
  403ed1:	48 8b 45 b8          	mov    -0x48(%rbp),%rax
  403ed5:	f2 0f 10 88 c8 00 00 	movsd  0xc8(%rax),%xmm1
  403edc:	00 
  403edd:	f2 0f 10 45 a8       	movsd  -0x58(%rbp),%xmm0
  403ee2:	66 0f 28 d0          	movapd %xmm0,%xmm2
  403ee6:	f2 0f 5c d1          	subsd  %xmm1,%xmm2
  403eea:	48 8b 45 b8          	mov    -0x48(%rbp),%rax
  403eee:	8b 80 24 01 00 00    	mov    0x124(%rax),%eax
  403ef4:	8b 55 d4             	mov    -0x2c(%rbp),%edx
  403ef7:	29 c2                	sub    %eax,%edx
  403ef9:	89 d0                	mov    %edx,%eax
  403efb:	89 c0                	mov    %eax,%eax
  403efd:	48 85 c0             	test   %rax,%rax
  403f00:	78 07                	js     403f09 <handle_in_pkt+0x368>
  403f02:	f2 48 0f 2a c0       	cvtsi2sd %rax,%xmm0
  403f07:	eb 15                	jmp    403f1e <handle_in_pkt+0x37d>
  403f09:	48 89 c2             	mov    %rax,%rdx
  403f0c:	48 d1 ea             	shr    %rdx
  403f0f:	83 e0 01             	and    $0x1,%eax
  403f12:	48 09 c2             	or     %rax,%rdx
  403f15:	f2 48 0f 2a c2       	cvtsi2sd %rdx,%xmm0
  403f1a:	f2 0f 58 c0          	addsd  %xmm0,%xmm0
  403f1e:	48 8b 45 b8          	mov    -0x48(%rbp),%rax
  403f22:	8b 80 24 01 00 00    	mov    0x124(%rax),%eax
  403f28:	8b 55 d8             	mov    -0x28(%rbp),%edx
  403f2b:	29 c2                	sub    %eax,%edx
  403f2d:	89 d0                	mov    %edx,%eax
  403f2f:	89 c0                	mov    %eax,%eax
  403f31:	48 85 c0             	test   %rax,%rax
  403f34:	78 07                	js     403f3d <handle_in_pkt+0x39c>
  403f36:	f2 48 0f 2a c8       	cvtsi2sd %rax,%xmm1
  403f3b:	eb 15                	jmp    403f52 <handle_in_pkt+0x3b1>
  403f3d:	48 89 c2             	mov    %rax,%rdx
  403f40:	48 d1 ea             	shr    %rdx
  403f43:	83 e0 01             	and    $0x1,%eax
  403f46:	48 09 c2             	or     %rax,%rdx
  403f49:	f2 48 0f 2a ca       	cvtsi2sd %rdx,%xmm1
  403f4e:	f2 0f 58 c9          	addsd  %xmm1,%xmm1
  403f52:	f2 0f 5e c1          	divsd  %xmm1,%xmm0
  403f56:	f2 0f 59 c2          	mulsd  %xmm2,%xmm0
  403f5a:	f2 0f 58 c3          	addsd  %xmm3,%xmm0
  403f5e:	f2 0f 11 45 e8       	movsd  %xmm0,-0x18(%rbp)
  403f63:	48 8b 45 b8          	mov    -0x48(%rbp),%rax
  403f67:	48 8d 88 90 01 00 00 	lea    0x190(%rax),%rcx
  403f6e:	48 8b 45 e8          	mov    -0x18(%rbp),%rax
  403f72:	8b 55 d4             	mov    -0x2c(%rbp),%edx
  403f75:	48 89 ce             	mov    %rcx,%rsi
  403f78:	48 89 45 98          	mov    %rax,-0x68(%rbp)
  403f7c:	f2 0f 10 45 98       	movsd  -0x68(%rbp),%xmm0
  403f81:	89 d7                	mov    %edx,%edi
  403f83:	e8 b7 e0 ff ff       	callq  40203f <insert_seq_rtt>
  403f88:	48 8b 45 b8          	mov    -0x48(%rbp),%rax
  403f8c:	8b 80 10 01 00 00    	mov    0x110(%rax),%eax
  403f92:	01 45 d4             	add    %eax,-0x2c(%rbp)
  403f95:	48 8b 45 b8          	mov    -0x48(%rbp),%rax
  403f99:	8b 90 10 01 00 00    	mov    0x110(%rax),%edx
  403f9f:	8b 45 d4             	mov    -0x2c(%rbp),%eax
  403fa2:	01 d0                	add    %edx,%eax
  403fa4:	3b 45 d8             	cmp    -0x28(%rbp),%eax
  403fa7:	0f 82 18 ff ff ff    	jb     403ec5 <handle_in_pkt+0x324>
  403fad:	e9 25 03 00 00       	jmpq   4042d7 <handle_in_pkt+0x736>
  403fb2:	48 8b 45 b8          	mov    -0x48(%rbp),%rax
  403fb6:	8b 80 1c 01 00 00    	mov    0x11c(%rax),%eax
  403fbc:	3b 45 d8             	cmp    -0x28(%rbp),%eax
  403fbf:	0f 85 b4 02 00 00    	jne    404279 <handle_in_pkt+0x6d8>
  403fc5:	48 8b 45 b8          	mov    -0x48(%rbp),%rax
  403fc9:	48 05 30 01 00 00    	add    $0x130,%rax
  403fcf:	48 89 c7             	mov    %rax,%rdi
  403fd2:	e8 4d eb ff ff       	callq  402b24 <get_list_item_num>
  403fd7:	89 45 e0             	mov    %eax,-0x20(%rbp)
  403fda:	83 7d e0 00          	cmpl   $0x0,-0x20(%rbp)
  403fde:	0f 8e 95 02 00 00    	jle    404279 <handle_in_pkt+0x6d8>
  403fe4:	48 8b 45 a8          	mov    -0x58(%rbp),%rax
  403fe8:	48 89 45 f0          	mov    %rax,-0x10(%rbp)
  403fec:	83 7d e0 02          	cmpl   $0x2,-0x20(%rbp)
  403ff0:	7e 25                	jle    404017 <handle_in_pkt+0x476>
  403ff2:	8b 55 a4             	mov    -0x5c(%rbp),%edx
  403ff5:	8b 45 d8             	mov    -0x28(%rbp),%eax
  403ff8:	01 c2                	add    %eax,%edx
  403ffa:	48 8b 45 b8          	mov    -0x48(%rbp),%rax
  403ffe:	48 8d 88 40 01 00 00 	lea    0x140(%rax),%rcx
  404005:	8b 45 d8             	mov    -0x28(%rbp),%eax
  404008:	89 c6                	mov    %eax,%esi
  40400a:	48 89 cf             	mov    %rcx,%rdi
  40400d:	e8 b2 e8 ff ff       	callq  4028c4 <append_to_range_list>
  404012:	e9 6a 01 00 00       	jmpq   404181 <handle_in_pkt+0x5e0>
  404017:	48 8b 45 b8          	mov    -0x48(%rbp),%rax
  40401b:	8b 90 1c 01 00 00    	mov    0x11c(%rax),%edx
  404021:	48 8b 45 b8          	mov    -0x48(%rbp),%rax
  404025:	8b 80 e8 00 00 00    	mov    0xe8(%rax),%eax
  40402b:	39 c2                	cmp    %eax,%edx
  40402d:	75 0f                	jne    40403e <handle_in_pkt+0x49d>
  40402f:	48 8b 45 b8          	mov    -0x48(%rbp),%rax
  404033:	48 8b 80 f0 00 00 00 	mov    0xf0(%rax),%rax
  40403a:	48 89 45 f0          	mov    %rax,-0x10(%rbp)
  40403e:	48 8b 45 b8          	mov    -0x48(%rbp),%rax
  404042:	48 8d 90 90 01 00 00 	lea    0x190(%rax),%rdx
  404049:	8b 45 d8             	mov    -0x28(%rbp),%eax
  40404c:	48 89 d6             	mov    %rdx,%rsi
  40404f:	89 c7                	mov    %eax,%edi
  404051:	e8 7d e1 ff ff       	callq  4021d3 <get_time_by_seq>
  404056:	f2 0f 11 45 98       	movsd  %xmm0,-0x68(%rbp)
  40405b:	48 8b 45 98          	mov    -0x68(%rbp),%rax
  40405f:	48 89 45 e8          	mov    %rax,-0x18(%rbp)
  404063:	66 0f 57 c0          	xorpd  %xmm0,%xmm0
  404067:	66 0f 2e 45 e8       	ucomisd -0x18(%rbp),%xmm0
  40406c:	7a 13                	jp     404081 <handle_in_pkt+0x4e0>
  40406e:	66 0f 57 c0          	xorpd  %xmm0,%xmm0
  404072:	66 0f 2e 45 e8       	ucomisd -0x18(%rbp),%xmm0
  404077:	75 08                	jne    404081 <handle_in_pkt+0x4e0>
  404079:	48 8b 45 a8          	mov    -0x58(%rbp),%rax
  40407d:	48 89 45 e8          	mov    %rax,-0x18(%rbp)
  404081:	f2 0f 10 45 a8       	movsd  -0x58(%rbp),%xmm0
  404086:	66 0f 28 c8          	movapd %xmm0,%xmm1
  40408a:	f2 0f 5c 4d f0       	subsd  -0x10(%rbp),%xmm1
  40408f:	48 8b 45 b8          	mov    -0x48(%rbp),%rax
  404093:	8b 80 b4 01 00 00    	mov    0x1b4(%rax),%eax
  404099:	c1 e8 03             	shr    $0x3,%eax
  40409c:	89 c0                	mov    %eax,%eax
  40409e:	48 85 c0             	test   %rax,%rax
  4040a1:	78 07                	js     4040aa <handle_in_pkt+0x509>
  4040a3:	f2 48 0f 2a c0       	cvtsi2sd %rax,%xmm0
  4040a8:	eb 15                	jmp    4040bf <handle_in_pkt+0x51e>
  4040aa:	48 89 c2             	mov    %rax,%rdx
  4040ad:	48 d1 ea             	shr    %rdx
  4040b0:	83 e0 01             	and    $0x1,%eax
  4040b3:	48 09 c2             	or     %rax,%rdx
  4040b6:	f2 48 0f 2a c2       	cvtsi2sd %rdx,%xmm0
  4040bb:	f2 0f 58 c0          	addsd  %xmm0,%xmm0
  4040bf:	f2 0f 10 15 b1 20 00 	movsd  0x20b1(%rip),%xmm2        # 406178 <_IO_stdin_used+0x848>
  4040c6:	00 
  4040c7:	f2 0f 5e c2          	divsd  %xmm2,%xmm0
  4040cb:	66 0f 2e c8          	ucomisd %xmm0,%xmm1
  4040cf:	77 4d                	ja     40411e <handle_in_pkt+0x57d>
  4040d1:	f2 0f 10 45 a8       	movsd  -0x58(%rbp),%xmm0
  4040d6:	66 0f 28 c8          	movapd %xmm0,%xmm1
  4040da:	f2 0f 5c 4d e8       	subsd  -0x18(%rbp),%xmm1
  4040df:	48 8b 45 b8          	mov    -0x48(%rbp),%rax
  4040e3:	8b 80 bc 01 00 00    	mov    0x1bc(%rax),%eax
  4040e9:	89 c0                	mov    %eax,%eax
  4040eb:	48 85 c0             	test   %rax,%rax
  4040ee:	78 07                	js     4040f7 <handle_in_pkt+0x556>
  4040f0:	f2 48 0f 2a c0       	cvtsi2sd %rax,%xmm0
  4040f5:	eb 15                	jmp    40410c <handle_in_pkt+0x56b>
  4040f7:	48 89 c2             	mov    %rax,%rdx
  4040fa:	48 d1 ea             	shr    %rdx
  4040fd:	83 e0 01             	and    $0x1,%eax
  404100:	48 09 c2             	or     %rax,%rdx
  404103:	f2 48 0f 2a c2       	cvtsi2sd %rdx,%xmm0
  404108:	f2 0f 58 c0          	addsd  %xmm0,%xmm0
  40410c:	f2 0f 10 15 64 20 00 	movsd  0x2064(%rip),%xmm2        # 406178 <_IO_stdin_used+0x848>
  404113:	00 
  404114:	f2 0f 5e c2          	divsd  %xmm2,%xmm0
  404118:	66 0f 2e c8          	ucomisd %xmm0,%xmm1
  40411c:	76 22                	jbe    404140 <handle_in_pkt+0x59f>
  40411e:	8b 55 a4             	mov    -0x5c(%rbp),%edx
  404121:	8b 45 d8             	mov    -0x28(%rbp),%eax
  404124:	01 c2                	add    %eax,%edx
  404126:	48 8b 45 b8          	mov    -0x48(%rbp),%rax
  40412a:	48 8d 88 40 01 00 00 	lea    0x140(%rax),%rcx
  404131:	8b 45 d8             	mov    -0x28(%rbp),%eax
  404134:	89 c6                	mov    %eax,%esi
  404136:	48 89 cf             	mov    %rcx,%rdi
  404139:	e8 86 e7 ff ff       	callq  4028c4 <append_to_range_list>
  40413e:	eb 41                	jmp    404181 <handle_in_pkt+0x5e0>
  404140:	48 8b 45 b8          	mov    -0x48(%rbp),%rax
  404144:	48 8d b0 30 01 00 00 	lea    0x130(%rax),%rsi
  40414b:	48 8d 4d cc          	lea    -0x34(%rbp),%rcx
  40414f:	48 8d 55 c8          	lea    -0x38(%rbp),%rdx
  404153:	8b 45 d8             	mov    -0x28(%rbp),%eax
  404156:	89 c7                	mov    %eax,%edi
  404158:	e8 b3 f8 ff ff       	callq  403a10 <get_reorder>
  40415d:	89 45 e4             	mov    %eax,-0x1c(%rbp)
  404160:	83 7d e4 00          	cmpl   $0x0,-0x1c(%rbp)
  404164:	7e 1b                	jle    404181 <handle_in_pkt+0x5e0>
  404166:	8b 55 cc             	mov    -0x34(%rbp),%edx
  404169:	8b 45 c8             	mov    -0x38(%rbp),%eax
  40416c:	48 8b 4d b8          	mov    -0x48(%rbp),%rcx
  404170:	48 81 c1 50 01 00 00 	add    $0x150,%rcx
  404177:	89 c6                	mov    %eax,%esi
  404179:	48 89 cf             	mov    %rcx,%rdi
  40417c:	e8 43 e7 ff ff       	callq  4028c4 <append_to_range_list>
  404181:	8b 55 a4             	mov    -0x5c(%rbp),%edx
  404184:	8b 45 d8             	mov    -0x28(%rbp),%eax
  404187:	01 c2                	add    %eax,%edx
  404189:	48 8b 45 b8          	mov    -0x48(%rbp),%rax
  40418d:	48 05 30 01 00 00    	add    $0x130,%rax
  404193:	89 d6                	mov    %edx,%esi
  404195:	48 89 c7             	mov    %rax,%rdi
  404198:	e8 c1 e9 ff ff       	callq  402b5e <find_node_by_seq>
  40419d:	48 89 45 f8          	mov    %rax,-0x8(%rbp)
  4041a1:	48 83 7d f8 00       	cmpq   $0x0,-0x8(%rbp)
  4041a6:	0f 85 cb 00 00 00    	jne    404277 <handle_in_pkt+0x6d6>
  4041ac:	48 8b 45 b8          	mov    -0x48(%rbp),%rax
  4041b0:	f2 0f 10 98 c8 00 00 	movsd  0xc8(%rax),%xmm3
  4041b7:	00 
  4041b8:	48 8b 45 b8          	mov    -0x48(%rbp),%rax
  4041bc:	f2 0f 10 88 c8 00 00 	movsd  0xc8(%rax),%xmm1
  4041c3:	00 
  4041c4:	f2 0f 10 45 a8       	movsd  -0x58(%rbp),%xmm0
  4041c9:	66 0f 28 d0          	movapd %xmm0,%xmm2
  4041cd:	f2 0f 5c d1          	subsd  %xmm1,%xmm2
  4041d1:	48 8b 45 b8          	mov    -0x48(%rbp),%rax
  4041d5:	8b 80 24 01 00 00    	mov    0x124(%rax),%eax
  4041db:	2b 45 d8             	sub    -0x28(%rbp),%eax
  4041de:	89 c2                	mov    %eax,%edx
  4041e0:	8b 45 a4             	mov    -0x5c(%rbp),%eax
  4041e3:	29 c2                	sub    %eax,%edx
  4041e5:	89 d0                	mov    %edx,%eax
  4041e7:	89 c0                	mov    %eax,%eax
  4041e9:	48 85 c0             	test   %rax,%rax
  4041ec:	78 07                	js     4041f5 <handle_in_pkt+0x654>
  4041ee:	f2 48 0f 2a c0       	cvtsi2sd %rax,%xmm0
  4041f3:	eb 15                	jmp    40420a <handle_in_pkt+0x669>
  4041f5:	48 89 c2             	mov    %rax,%rdx
  4041f8:	48 d1 ea             	shr    %rdx
  4041fb:	83 e0 01             	and    $0x1,%eax
  4041fe:	48 09 c2             	or     %rax,%rdx
  404201:	f2 48 0f 2a c2       	cvtsi2sd %rdx,%xmm0
  404206:	f2 0f 58 c0          	addsd  %xmm0,%xmm0
  40420a:	48 8b 45 b8          	mov    -0x48(%rbp),%rax
  40420e:	8b 80 24 01 00 00    	mov    0x124(%rax),%eax
  404214:	2b 45 d8             	sub    -0x28(%rbp),%eax
  404217:	89 c0                	mov    %eax,%eax
  404219:	48 85 c0             	test   %rax,%rax
  40421c:	78 07                	js     404225 <handle_in_pkt+0x684>
  40421e:	f2 48 0f 2a c8       	cvtsi2sd %rax,%xmm1
  404223:	eb 15                	jmp    40423a <handle_in_pkt+0x699>
  404225:	48 89 c2             	mov    %rax,%rdx
  404228:	48 d1 ea             	shr    %rdx
  40422b:	83 e0 01             	and    $0x1,%eax
  40422e:	48 09 c2             	or     %rax,%rdx
  404231:	f2 48 0f 2a ca       	cvtsi2sd %rdx,%xmm1
  404236:	f2 0f 58 c9          	addsd  %xmm1,%xmm1
  40423a:	f2 0f 5e c1          	divsd  %xmm1,%xmm0
  40423e:	f2 0f 59 c2          	mulsd  %xmm2,%xmm0
  404242:	f2 0f 58 c3          	addsd  %xmm3,%xmm0
  404246:	f2 0f 11 45 e8       	movsd  %xmm0,-0x18(%rbp)
  40424b:	48 8b 45 b8          	mov    -0x48(%rbp),%rax
  40424f:	48 8d 88 90 01 00 00 	lea    0x190(%rax),%rcx
  404256:	8b 55 a4             	mov    -0x5c(%rbp),%edx
  404259:	8b 45 d8             	mov    -0x28(%rbp),%eax
  40425c:	01 c2                	add    %eax,%edx
  40425e:	48 8b 45 e8          	mov    -0x18(%rbp),%rax
  404262:	48 89 ce             	mov    %rcx,%rsi
  404265:	48 89 45 98          	mov    %rax,-0x68(%rbp)
  404269:	f2 0f 10 45 98       	movsd  -0x68(%rbp),%xmm0
  40426e:	89 d7                	mov    %edx,%edi
  404270:	e8 ca dd ff ff       	callq  40203f <insert_seq_rtt>
  404275:	eb 60                	jmp    4042d7 <handle_in_pkt+0x736>
  404277:	eb 5e                	jmp    4042d7 <handle_in_pkt+0x736>
  404279:	48 8b 45 b8          	mov    -0x48(%rbp),%rax
  40427d:	8b 80 1c 01 00 00    	mov    0x11c(%rax),%eax
  404283:	3b 45 d8             	cmp    -0x28(%rbp),%eax
  404286:	77 1e                	ja     4042a6 <handle_in_pkt+0x705>
  404288:	48 8b 45 b8          	mov    -0x48(%rbp),%rax
  40428c:	8b 80 24 01 00 00    	mov    0x124(%rax),%eax
  404292:	3b 45 d8             	cmp    -0x28(%rbp),%eax
  404295:	75 40                	jne    4042d7 <handle_in_pkt+0x736>
  404297:	48 8b 45 b8          	mov    -0x48(%rbp),%rax
  40429b:	8b 80 8c 00 00 00    	mov    0x8c(%rax),%eax
  4042a1:	83 f8 04             	cmp    $0x4,%eax
  4042a4:	7e 31                	jle    4042d7 <handle_in_pkt+0x736>
  4042a6:	8b 55 a4             	mov    -0x5c(%rbp),%edx
  4042a9:	8b 45 d8             	mov    -0x28(%rbp),%eax
  4042ac:	01 c2                	add    %eax,%edx
  4042ae:	48 8b 45 b8          	mov    -0x48(%rbp),%rax
  4042b2:	48 8d 88 60 01 00 00 	lea    0x160(%rax),%rcx
  4042b9:	8b 45 d8             	mov    -0x28(%rbp),%eax
  4042bc:	89 c6                	mov    %eax,%esi
  4042be:	48 89 cf             	mov    %rcx,%rdi
  4042c1:	e8 fe e5 ff ff       	callq  4028c4 <append_to_range_list>
  4042c6:	8b 55 d8             	mov    -0x28(%rbp),%edx
  4042c9:	48 8b 45 b8          	mov    -0x48(%rbp),%rax
  4042cd:	89 d6                	mov    %edx,%esi
  4042cf:	48 89 c7             	mov    %rax,%rdi
  4042d2:	e8 4a f5 ff ff       	callq  403821 <update_retrans_and_reorder>
  4042d7:	c9                   	leaveq 
  4042d8:	c3                   	retq   

00000000004042d9 <handle_out_pkt>:
  4042d9:	55                   	push   %rbp
  4042da:	48 89 e5             	mov    %rsp,%rbp
  4042dd:	48 83 ec 30          	sub    $0x30,%rsp
  4042e1:	48 89 7d e8          	mov    %rdi,-0x18(%rbp)
  4042e5:	48 89 75 e0          	mov    %rsi,-0x20(%rbp)
  4042e9:	f2 0f 11 45 d8       	movsd  %xmm0,-0x28(%rbp)
  4042ee:	89 55 d4             	mov    %edx,-0x2c(%rbp)
  4042f1:	48 8b 45 e0          	mov    -0x20(%rbp),%rax
  4042f5:	8b 40 04             	mov    0x4(%rax),%eax
  4042f8:	89 c7                	mov    %eax,%edi
  4042fa:	e8 b1 cc ff ff       	callq  400fb0 <ntohl@plt>
  4042ff:	89 45 f0             	mov    %eax,-0x10(%rbp)
  404302:	48 8b 45 e0          	mov    -0x20(%rbp),%rax
  404306:	8b 40 08             	mov    0x8(%rax),%eax
  404309:	89 c7                	mov    %eax,%edi
  40430b:	e8 a0 cc ff ff       	callq  400fb0 <ntohl@plt>
  404310:	89 45 f4             	mov    %eax,-0xc(%rbp)
  404313:	48 8b 45 e8          	mov    -0x18(%rbp),%rax
  404317:	8b 55 f4             	mov    -0xc(%rbp),%edx
  40431a:	89 90 1c 01 00 00    	mov    %edx,0x11c(%rax)
  404320:	8b 55 d4             	mov    -0x2c(%rbp),%edx
  404323:	8b 45 f0             	mov    -0x10(%rbp),%eax
  404326:	01 c2                	add    %eax,%edx
  404328:	48 8b 45 e8          	mov    -0x18(%rbp),%rax
  40432c:	89 90 14 01 00 00    	mov    %edx,0x114(%rax)
  404332:	48 8b 45 e8          	mov    -0x18(%rbp),%rax
  404336:	8b 80 90 00 00 00    	mov    0x90(%rax),%eax
  40433c:	83 f8 01             	cmp    $0x1,%eax
  40433f:	75 24                	jne    404365 <handle_out_pkt+0x8c>
  404341:	83 7d d4 00          	cmpl   $0x0,-0x2c(%rbp)
  404345:	7e 10                	jle    404357 <handle_out_pkt+0x7e>
  404347:	48 8b 45 e8          	mov    -0x18(%rbp),%rax
  40434b:	c7 80 00 01 00 00 01 	movl   $0x1,0x100(%rax)
  404352:	00 00 00 
  404355:	eb 0e                	jmp    404365 <handle_out_pkt+0x8c>
  404357:	48 8b 45 e8          	mov    -0x18(%rbp),%rax
  40435b:	c7 80 00 01 00 00 00 	movl   $0x0,0x100(%rax)
  404362:	00 00 00 
  404365:	48 8b 45 e8          	mov    -0x18(%rbp),%rax
  404369:	8b 80 90 00 00 00    	mov    0x90(%rax),%eax
  40436f:	83 f8 01             	cmp    $0x1,%eax
  404372:	75 28                	jne    40439c <handle_out_pkt+0xc3>
  404374:	48 8b 45 e8          	mov    -0x18(%rbp),%rax
  404378:	8b 80 28 01 00 00    	mov    0x128(%rax),%eax
  40437e:	3b 45 f4             	cmp    -0xc(%rbp),%eax
  404381:	75 19                	jne    40439c <handle_out_pkt+0xc3>
  404383:	48 8b 45 e8          	mov    -0x18(%rbp),%rax
  404387:	8b 80 f8 00 00 00    	mov    0xf8(%rax),%eax
  40438d:	8d 50 01             	lea    0x1(%rax),%edx
  404390:	48 8b 45 e8          	mov    -0x18(%rbp),%rax
  404394:	89 90 f8 00 00 00    	mov    %edx,0xf8(%rax)
  40439a:	eb 0e                	jmp    4043aa <handle_out_pkt+0xd1>
  40439c:	48 8b 45 e8          	mov    -0x18(%rbp),%rax
  4043a0:	c7 80 f8 00 00 00 00 	movl   $0x0,0xf8(%rax)
  4043a7:	00 00 00 
  4043aa:	48 8b 45 e8          	mov    -0x18(%rbp),%rax
  4043ae:	8b 80 f8 00 00 00    	mov    0xf8(%rax),%eax
  4043b4:	83 f8 03             	cmp    $0x3,%eax
  4043b7:	75 1c                	jne    4043d5 <handle_out_pkt+0xfc>
  4043b9:	48 8b 45 e8          	mov    -0x18(%rbp),%rax
  4043bd:	8b 55 f4             	mov    -0xc(%rbp),%edx
  4043c0:	89 90 e8 00 00 00    	mov    %edx,0xe8(%rax)
  4043c6:	48 8b 55 e8          	mov    -0x18(%rbp),%rdx
  4043ca:	48 8b 45 d8          	mov    -0x28(%rbp),%rax
  4043ce:	48 89 82 f0 00 00 00 	mov    %rax,0xf0(%rdx)
  4043d5:	48 8b 45 e8          	mov    -0x18(%rbp),%rax
  4043d9:	8b 80 28 01 00 00    	mov    0x128(%rax),%eax
  4043df:	3b 45 f4             	cmp    -0xc(%rbp),%eax
  4043e2:	73 30                	jae    404414 <handle_out_pkt+0x13b>
  4043e4:	48 8b 45 e8          	mov    -0x18(%rbp),%rax
  4043e8:	48 8d 90 90 01 00 00 	lea    0x190(%rax),%rdx
  4043ef:	8b 45 f4             	mov    -0xc(%rbp),%eax
  4043f2:	48 89 d6             	mov    %rdx,%rsi
  4043f5:	89 c7                	mov    %eax,%edi
  4043f7:	e8 37 de ff ff       	callq  402233 <delete_before_seq>
  4043fc:	48 8b 45 e8          	mov    -0x18(%rbp),%rax
  404400:	48 8d 90 30 01 00 00 	lea    0x130(%rax),%rdx
  404407:	8b 45 f4             	mov    -0xc(%rbp),%eax
  40440a:	89 c6                	mov    %eax,%esi
  40440c:	48 89 d7             	mov    %rdx,%rdi
  40440f:	e8 9d e7 ff ff       	callq  402bb1 <delete_node_before_seq>
  404414:	48 8b 45 e8          	mov    -0x18(%rbp),%rax
  404418:	48 8b 80 c0 01 00 00 	mov    0x1c0(%rax),%rax
  40441f:	48 8b 55 e8          	mov    -0x18(%rbp),%rdx
  404423:	48 8b 92 c0 00 00 00 	mov    0xc0(%rdx),%rdx
  40442a:	48 89 d6             	mov    %rdx,%rsi
  40442d:	48 89 c7             	mov    %rax,%rdi
  404430:	e8 1e ed ff ff       	callq  403153 <find_rtt_entry>
  404435:	48 89 45 f8          	mov    %rax,-0x8(%rbp)
  404439:	48 83 7d f8 00       	cmpq   $0x0,-0x8(%rbp)
  40443e:	75 21                	jne    404461 <handle_out_pkt+0x188>
  404440:	48 8b 45 e8          	mov    -0x18(%rbp),%rax
  404444:	48 8d 90 c0 00 00 00 	lea    0xc0(%rax),%rdx
  40444b:	48 8b 45 e8          	mov    -0x18(%rbp),%rax
  40444f:	48 8b 80 c0 01 00 00 	mov    0x1c0(%rax),%rax
  404456:	48 89 d6             	mov    %rdx,%rsi
  404459:	48 89 c7             	mov    %rax,%rdi
  40445c:	e8 76 ed ff ff       	callq  4031d7 <insert_rtt_entry>
  404461:	c9                   	leaveq 
  404462:	c3                   	retq   

0000000000404463 <tcp_state_machine>:
  404463:	55                   	push   %rbp
  404464:	48 89 e5             	mov    %rsp,%rbp
  404467:	48 83 ec 60          	sub    $0x60,%rsp
  40446b:	48 89 7d c8          	mov    %rdi,-0x38(%rbp)
  40446f:	48 89 75 c0          	mov    %rsi,-0x40(%rbp)
  404473:	89 55 bc             	mov    %edx,-0x44(%rbp)
  404476:	f2 0f 11 45 b0       	movsd  %xmm0,-0x50(%rbp)
  40447b:	89 4d b8             	mov    %ecx,-0x48(%rbp)
  40447e:	48 8b 45 c0          	mov    -0x40(%rbp),%rax
  404482:	8b 40 04             	mov    0x4(%rax),%eax
  404485:	89 c7                	mov    %eax,%edi
  404487:	e8 24 cb ff ff       	callq  400fb0 <ntohl@plt>
  40448c:	89 45 e0             	mov    %eax,-0x20(%rbp)
  40448f:	48 8b 45 c0          	mov    -0x40(%rbp),%rax
  404493:	8b 40 08             	mov    0x8(%rax),%eax
  404496:	89 c7                	mov    %eax,%edi
  404498:	e8 13 cb ff ff       	callq  400fb0 <ntohl@plt>
  40449d:	89 45 e4             	mov    %eax,-0x1c(%rbp)
  4044a0:	48 8b 45 c8          	mov    -0x38(%rbp),%rax
  4044a4:	8b 80 8c 00 00 00    	mov    0x8c(%rax),%eax
  4044aa:	8d 50 01             	lea    0x1(%rax),%edx
  4044ad:	48 8b 45 c8          	mov    -0x38(%rbp),%rax
  4044b1:	89 90 8c 00 00 00    	mov    %edx,0x8c(%rax)
  4044b7:	83 7d b8 01          	cmpl   $0x1,-0x48(%rbp)
  4044bb:	75 4f                	jne    40450c <tcp_state_machine+0xa9>
  4044bd:	48 8b 45 c8          	mov    -0x38(%rbp),%rax
  4044c1:	8b 80 90 00 00 00    	mov    0x90(%rax),%eax
  4044c7:	83 f8 02             	cmp    $0x2,%eax
  4044ca:	75 40                	jne    40450c <tcp_state_machine+0xa9>
  4044cc:	48 8b 45 c8          	mov    -0x38(%rbp),%rax
  4044d0:	f2 0f 10 88 d0 00 00 	movsd  0xd0(%rax),%xmm1
  4044d7:	00 
  4044d8:	f2 0f 10 45 b0       	movsd  -0x50(%rbp),%xmm0
  4044dd:	f2 0f 5c c1          	subsd  %xmm1,%xmm0
  4044e1:	f2 0f 10 0d 8f 1c 00 	movsd  0x1c8f(%rip),%xmm1        # 406178 <_IO_stdin_used+0x848>
  4044e8:	00 
  4044e9:	f2 0f 59 c1          	mulsd  %xmm1,%xmm0
  4044ed:	f2 0f 2c c0          	cvttsd2si %xmm0,%eax
  4044f1:	89 45 e8             	mov    %eax,-0x18(%rbp)
  4044f4:	48 8b 45 c8          	mov    -0x38(%rbp),%rax
  4044f8:	48 8d 90 b4 01 00 00 	lea    0x1b4(%rax),%rdx
  4044ff:	8b 45 e8             	mov    -0x18(%rbp),%eax
  404502:	89 c6                	mov    %eax,%esi
  404504:	48 89 d7             	mov    %rdx,%rdi
  404507:	e8 e0 cb ff ff       	callq  4010ec <update_rtt>
  40450c:	83 7d b8 01          	cmpl   $0x1,-0x48(%rbp)
  404510:	75 58                	jne    40456a <tcp_state_machine+0x107>
  404512:	48 8b 45 c0          	mov    -0x40(%rbp),%rax
  404516:	0f b6 40 0d          	movzbl 0xd(%rax),%eax
  40451a:	83 e0 02             	and    $0x2,%eax
  40451d:	84 c0                	test   %al,%al
  40451f:	74 49                	je     40456a <tcp_state_machine+0x107>
  404521:	48 8b 45 c8          	mov    -0x38(%rbp),%rax
  404525:	c7 80 90 00 00 00 03 	movl   $0x3,0x90(%rax)
  40452c:	00 00 00 
  40452f:	48 8b 55 c8          	mov    -0x38(%rbp),%rdx
  404533:	48 8b 45 b0          	mov    -0x50(%rbp),%rax
  404537:	48 89 82 d8 00 00 00 	mov    %rax,0xd8(%rdx)
  40453e:	48 8b 45 c8          	mov    -0x38(%rbp),%rax
  404542:	8b 55 e0             	mov    -0x20(%rbp),%edx
  404545:	89 90 0c 01 00 00    	mov    %edx,0x10c(%rax)
  40454b:	48 8b 45 c8          	mov    -0x38(%rbp),%rax
  40454f:	8b 55 e0             	mov    -0x20(%rbp),%edx
  404552:	89 90 1c 01 00 00    	mov    %edx,0x11c(%rax)
  404558:	48 8b 45 c8          	mov    -0x38(%rbp),%rax
  40455c:	8b 55 e4             	mov    -0x1c(%rbp),%edx
  40455f:	89 90 20 01 00 00    	mov    %edx,0x120(%rax)
  404565:	e9 c5 01 00 00       	jmpq   40472f <tcp_state_machine+0x2cc>
  40456a:	48 8b 45 c0          	mov    -0x40(%rbp),%rax
  40456e:	0f b6 40 0d          	movzbl 0xd(%rax),%eax
  404572:	83 e0 04             	and    $0x4,%eax
  404575:	84 c0                	test   %al,%al
  404577:	74 13                	je     40458c <tcp_state_machine+0x129>
  404579:	48 8b 45 c8          	mov    -0x38(%rbp),%rax
  40457d:	c7 80 90 00 00 00 0b 	movl   $0xb,0x90(%rax)
  404584:	00 00 00 
  404587:	e9 a3 01 00 00       	jmpq   40472f <tcp_state_machine+0x2cc>
  40458c:	48 8b 45 c8          	mov    -0x38(%rbp),%rax
  404590:	8b 80 90 00 00 00    	mov    0x90(%rax),%eax
  404596:	83 f8 0b             	cmp    $0xb,%eax
  404599:	0f 87 63 01 00 00    	ja     404702 <tcp_state_machine+0x29f>
  40459f:	89 c0                	mov    %eax,%eax
  4045a1:	48 8b 04 c5 48 60 40 	mov    0x406048(,%rax,8),%rax
  4045a8:	00 
  4045a9:	ff e0                	jmpq   *%rax
  4045ab:	83 7d b8 01          	cmpl   $0x1,-0x48(%rbp)
  4045af:	75 22                	jne    4045d3 <tcp_state_machine+0x170>
  4045b1:	48 8b 45 c0          	mov    -0x40(%rbp),%rax
  4045b5:	0f b6 40 0d          	movzbl 0xd(%rax),%eax
  4045b9:	83 e0 02             	and    $0x2,%eax
  4045bc:	84 c0                	test   %al,%al
  4045be:	74 13                	je     4045d3 <tcp_state_machine+0x170>
  4045c0:	48 8b 45 c8          	mov    -0x38(%rbp),%rax
  4045c4:	c7 80 90 00 00 00 03 	movl   $0x3,0x90(%rax)
  4045cb:	00 00 00 
  4045ce:	e9 5c 01 00 00       	jmpq   40472f <tcp_state_machine+0x2cc>
  4045d3:	e9 57 01 00 00       	jmpq   40472f <tcp_state_machine+0x2cc>
  4045d8:	83 7d b8 02          	cmpl   $0x2,-0x48(%rbp)
  4045dc:	75 22                	jne    404600 <tcp_state_machine+0x19d>
  4045de:	48 8b 45 c0          	mov    -0x40(%rbp),%rax
  4045e2:	0f b6 40 0d          	movzbl 0xd(%rax),%eax
  4045e6:	83 e0 02             	and    $0x2,%eax
  4045e9:	84 c0                	test   %al,%al
  4045eb:	74 13                	je     404600 <tcp_state_machine+0x19d>
  4045ed:	48 8b 45 c8          	mov    -0x38(%rbp),%rax
  4045f1:	c7 80 90 00 00 00 02 	movl   $0x2,0x90(%rax)
  4045f8:	00 00 00 
  4045fb:	e9 2f 01 00 00       	jmpq   40472f <tcp_state_machine+0x2cc>
  404600:	e9 2a 01 00 00       	jmpq   40472f <tcp_state_machine+0x2cc>
  404605:	83 7d b8 01          	cmpl   $0x1,-0x48(%rbp)
  404609:	75 40                	jne    40464b <tcp_state_machine+0x1e8>
  40460b:	48 8b 45 c0          	mov    -0x40(%rbp),%rax
  40460f:	0f b6 40 0d          	movzbl 0xd(%rax),%eax
  404613:	83 e0 02             	and    $0x2,%eax
  404616:	84 c0                	test   %al,%al
  404618:	75 31                	jne    40464b <tcp_state_machine+0x1e8>
  40461a:	48 8b 45 c0          	mov    -0x40(%rbp),%rax
  40461e:	0f b6 40 0d          	movzbl 0xd(%rax),%eax
  404622:	83 e0 04             	and    $0x4,%eax
  404625:	84 c0                	test   %al,%al
  404627:	75 22                	jne    40464b <tcp_state_machine+0x1e8>
  404629:	48 8b 45 c0          	mov    -0x40(%rbp),%rax
  40462d:	0f b6 40 0d          	movzbl 0xd(%rax),%eax
  404631:	83 e0 01             	and    $0x1,%eax
  404634:	84 c0                	test   %al,%al
  404636:	75 13                	jne    40464b <tcp_state_machine+0x1e8>
  404638:	48 8b 45 c8          	mov    -0x38(%rbp),%rax
  40463c:	c7 80 90 00 00 00 01 	movl   $0x1,0x90(%rax)
  404643:	00 00 00 
  404646:	e9 e4 00 00 00       	jmpq   40472f <tcp_state_machine+0x2cc>
  40464b:	e9 df 00 00 00       	jmpq   40472f <tcp_state_machine+0x2cc>
  404650:	48 8b 45 c0          	mov    -0x40(%rbp),%rax
  404654:	0f b6 40 0d          	movzbl 0xd(%rax),%eax
  404658:	83 e0 04             	and    $0x4,%eax
  40465b:	84 c0                	test   %al,%al
  40465d:	74 10                	je     40466f <tcp_state_machine+0x20c>
  40465f:	48 8b 45 c8          	mov    -0x38(%rbp),%rax
  404663:	c7 80 90 00 00 00 0b 	movl   $0xb,0x90(%rax)
  40466a:	00 00 00 
  40466d:	eb 43                	jmp    4046b2 <tcp_state_machine+0x24f>
  40466f:	48 8b 45 c0          	mov    -0x40(%rbp),%rax
  404673:	0f b6 40 0d          	movzbl 0xd(%rax),%eax
  404677:	83 e0 01             	and    $0x1,%eax
  40467a:	84 c0                	test   %al,%al
  40467c:	74 34                	je     4046b2 <tcp_state_machine+0x24f>
  40467e:	48 8b 45 c8          	mov    -0x38(%rbp),%rax
  404682:	c7 80 00 01 00 00 01 	movl   $0x1,0x100(%rax)
  404689:	00 00 00 
  40468c:	83 7d b8 01          	cmpl   $0x1,-0x48(%rbp)
  404690:	75 10                	jne    4046a2 <tcp_state_machine+0x23f>
  404692:	48 8b 45 c8          	mov    -0x38(%rbp),%rax
  404696:	c7 80 90 00 00 00 04 	movl   $0x4,0x90(%rax)
  40469d:	00 00 00 
  4046a0:	eb 10                	jmp    4046b2 <tcp_state_machine+0x24f>
  4046a2:	48 8b 45 c8          	mov    -0x38(%rbp),%rax
  4046a6:	c7 80 90 00 00 00 05 	movl   $0x5,0x90(%rax)
  4046ad:	00 00 00 
  4046b0:	eb 7d                	jmp    40472f <tcp_state_machine+0x2cc>
  4046b2:	eb 7b                	jmp    40472f <tcp_state_machine+0x2cc>
  4046b4:	83 7d b8 02          	cmpl   $0x2,-0x48(%rbp)
  4046b8:	75 1f                	jne    4046d9 <tcp_state_machine+0x276>
  4046ba:	48 8b 45 c8          	mov    -0x38(%rbp),%rax
  4046be:	8b 80 20 01 00 00    	mov    0x120(%rax),%eax
  4046c4:	3b 45 e4             	cmp    -0x1c(%rbp),%eax
  4046c7:	75 10                	jne    4046d9 <tcp_state_machine+0x276>
  4046c9:	48 8b 45 c8          	mov    -0x38(%rbp),%rax
  4046cd:	c7 80 90 00 00 00 07 	movl   $0x7,0x90(%rax)
  4046d4:	00 00 00 
  4046d7:	eb 56                	jmp    40472f <tcp_state_machine+0x2cc>
  4046d9:	eb 54                	jmp    40472f <tcp_state_machine+0x2cc>
  4046db:	83 7d b8 01          	cmpl   $0x1,-0x48(%rbp)
  4046df:	75 1f                	jne    404700 <tcp_state_machine+0x29d>
  4046e1:	48 8b 45 c8          	mov    -0x38(%rbp),%rax
  4046e5:	8b 80 14 01 00 00    	mov    0x114(%rax),%eax
  4046eb:	3b 45 e4             	cmp    -0x1c(%rbp),%eax
  4046ee:	75 10                	jne    404700 <tcp_state_machine+0x29d>
  4046f0:	48 8b 45 c8          	mov    -0x38(%rbp),%rax
  4046f4:	c7 80 90 00 00 00 07 	movl   $0x7,0x90(%rax)
  4046fb:	00 00 00 
  4046fe:	eb 2f                	jmp    40472f <tcp_state_machine+0x2cc>
  404700:	eb 2d                	jmp    40472f <tcp_state_machine+0x2cc>
  404702:	48 8b 45 c8          	mov    -0x38(%rbp),%rax
  404706:	8b 90 90 00 00 00    	mov    0x90(%rax),%edx
  40470c:	48 8b 05 1d 3b 20 00 	mov    0x203b1d(%rip),%rax        # 608230 <stderr@@GLIBC_2.2.5>
  404713:	89 d1                	mov    %edx,%ecx
  404715:	ba 23 60 40 00       	mov    $0x406023,%edx
  40471a:	be 29 60 40 00       	mov    $0x406029,%esi
  40471f:	48 89 c7             	mov    %rax,%rdi
  404722:	b8 00 00 00 00       	mov    $0x0,%eax
  404727:	e8 94 c7 ff ff       	callq  400ec0 <fprintf@plt>
  40472c:	eb 01                	jmp    40472f <tcp_state_machine+0x2cc>
  40472e:	90                   	nop
  40472f:	48 8b 45 c8          	mov    -0x38(%rbp),%rax
  404733:	8b 80 90 00 00 00    	mov    0x90(%rax),%eax
  404739:	83 f8 0b             	cmp    $0xb,%eax
  40473c:	74 0f                	je     40474d <tcp_state_machine+0x2ea>
  40473e:	48 8b 45 c8          	mov    -0x38(%rbp),%rax
  404742:	8b 80 90 00 00 00    	mov    0x90(%rax),%eax
  404748:	83 f8 07             	cmp    $0x7,%eax
  40474b:	75 0a                	jne    404757 <tcp_state_machine+0x2f4>
  40474d:	b8 00 00 00 00       	mov    $0x0,%eax
  404752:	e9 4c 02 00 00       	jmpq   4049a3 <tcp_state_machine+0x540>
  404757:	48 8b 45 c8          	mov    -0x38(%rbp),%rax
  40475b:	48 8d 90 94 00 00 00 	lea    0x94(%rax),%rdx
  404762:	48 8b 45 c0          	mov    -0x40(%rbp),%rax
  404766:	48 89 d6             	mov    %rdx,%rsi
  404769:	48 89 c7             	mov    %rax,%rdi
  40476c:	e8 db d4 ff ff       	callq  401c4c <get_tcp_option>
  404771:	83 7d b8 02          	cmpl   $0x2,-0x48(%rbp)
  404775:	75 22                	jne    404799 <tcp_state_machine+0x336>
  404777:	8b 55 bc             	mov    -0x44(%rbp),%edx
  40477a:	48 8b 45 b0          	mov    -0x50(%rbp),%rax
  40477e:	48 8b 75 c0          	mov    -0x40(%rbp),%rsi
  404782:	48 8b 4d c8          	mov    -0x38(%rbp),%rcx
  404786:	48 89 45 a8          	mov    %rax,-0x58(%rbp)
  40478a:	f2 0f 10 45 a8       	movsd  -0x58(%rbp),%xmm0
  40478f:	48 89 cf             	mov    %rcx,%rdi
  404792:	e8 42 fb ff ff       	callq  4042d9 <handle_out_pkt>
  404797:	eb 20                	jmp    4047b9 <tcp_state_machine+0x356>
  404799:	8b 55 bc             	mov    -0x44(%rbp),%edx
  40479c:	48 8b 45 b0          	mov    -0x50(%rbp),%rax
  4047a0:	48 8b 75 c0          	mov    -0x40(%rbp),%rsi
  4047a4:	48 8b 4d c8          	mov    -0x38(%rbp),%rcx
  4047a8:	48 89 45 a8          	mov    %rax,-0x58(%rbp)
  4047ac:	f2 0f 10 45 a8       	movsd  -0x58(%rbp),%xmm0
  4047b1:	48 89 cf             	mov    %rcx,%rdi
  4047b4:	e8 e8 f3 ff ff       	callq  403ba1 <handle_in_pkt>
  4047b9:	48 8b 45 c8          	mov    -0x38(%rbp),%rax
  4047bd:	48 05 b4 01 00 00    	add    $0x1b4,%rax
  4047c3:	48 89 c7             	mov    %rax,%rdi
  4047c6:	e8 e4 c9 ff ff       	callq  4011af <rtt_thres>
  4047cb:	89 45 ec             	mov    %eax,-0x14(%rbp)
  4047ce:	c7 45 dc 00 00 00 00 	movl   $0x0,-0x24(%rbp)
  4047d5:	83 7d b8 01          	cmpl   $0x1,-0x48(%rbp)
  4047d9:	75 20                	jne    4047fb <tcp_state_machine+0x398>
  4047db:	48 8b 45 c0          	mov    -0x40(%rbp),%rax
  4047df:	0f b6 40 0d          	movzbl 0xd(%rax),%eax
  4047e3:	83 e0 02             	and    $0x2,%eax
  4047e6:	84 c0                	test   %al,%al
  4047e8:	74 11                	je     4047fb <tcp_state_machine+0x398>
  4047ea:	48 8b 55 c8          	mov    -0x38(%rbp),%rdx
  4047ee:	48 8b 45 b0          	mov    -0x50(%rbp),%rax
  4047f2:	48 89 82 d8 00 00 00 	mov    %rax,0xd8(%rdx)
  4047f9:	eb 28                	jmp    404823 <tcp_state_machine+0x3c0>
  4047fb:	48 8b 45 c8          	mov    -0x38(%rbp),%rax
  4047ff:	f2 0f 10 88 e0 00 00 	movsd  0xe0(%rax),%xmm1
  404806:	00 
  404807:	f2 0f 10 45 b0       	movsd  -0x50(%rbp),%xmm0
  40480c:	f2 0f 5c c1          	subsd  %xmm1,%xmm0
  404810:	f2 0f 10 0d 60 19 00 	movsd  0x1960(%rip),%xmm1        # 406178 <_IO_stdin_used+0x848>
  404817:	00 
  404818:	f2 0f 59 c1          	mulsd  %xmm1,%xmm0
  40481c:	f2 0f 2c c0          	cvttsd2si %xmm0,%eax
  404820:	89 45 dc             	mov    %eax,-0x24(%rbp)
  404823:	48 8b 45 c8          	mov    -0x38(%rbp),%rax
  404827:	8b 80 00 01 00 00    	mov    0x100(%rax),%eax
  40482d:	85 c0                	test   %eax,%eax
  40482f:	0f 85 b6 00 00 00    	jne    4048eb <tcp_state_machine+0x488>
  404835:	8b 45 dc             	mov    -0x24(%rbp),%eax
  404838:	3b 45 ec             	cmp    -0x14(%rbp),%eax
  40483b:	0f 8e aa 00 00 00    	jle    4048eb <tcp_state_machine+0x488>
  404841:	48 8b 45 c8          	mov    -0x38(%rbp),%rax
  404845:	8b 80 b0 01 00 00    	mov    0x1b0(%rax),%eax
  40484b:	8d 50 01             	lea    0x1(%rax),%edx
  40484e:	48 8b 45 c8          	mov    -0x38(%rbp),%rax
  404852:	89 90 b0 01 00 00    	mov    %edx,0x1b0(%rax)
  404858:	bf 88 00 00 00       	mov    $0x88,%edi
  40485d:	e8 ff 07 00 00       	callq  405061 <my_malloc>
  404862:	48 89 45 f0          	mov    %rax,-0x10(%rbp)
  404866:	48 8b 45 f0          	mov    -0x10(%rbp),%rax
  40486a:	48 89 45 f8          	mov    %rax,-0x8(%rbp)
  40486e:	f2 0f 2a 45 dc       	cvtsi2sdl -0x24(%rbp),%xmm0
  404873:	f2 0f 10 0d fd 18 00 	movsd  0x18fd(%rip),%xmm1        # 406178 <_IO_stdin_used+0x848>
  40487a:	00 
  40487b:	f2 0f 5e c1          	divsd  %xmm1,%xmm0
  40487f:	48 8b 55 f8          	mov    -0x8(%rbp),%rdx
  404883:	48 8b 45 c8          	mov    -0x38(%rbp),%rax
  404887:	48 89 d6             	mov    %rdx,%rsi
  40488a:	48 89 c7             	mov    %rax,%rdi
  40488d:	e8 ea 09 00 00       	callq  40527c <init_tcp_stall>
  404892:	48 8b 45 f8          	mov    -0x8(%rbp),%rax
  404896:	8b 55 b8             	mov    -0x48(%rbp),%edx
  404899:	89 50 70             	mov    %edx,0x70(%rax)
  40489c:	48 8b 45 f8          	mov    -0x8(%rbp),%rax
  4048a0:	8b 50 50             	mov    0x50(%rax),%edx
  4048a3:	48 8b 45 c8          	mov    -0x38(%rbp),%rax
  4048a7:	89 d6                	mov    %edx,%esi
  4048a9:	48 89 c7             	mov    %rax,%rdi
  4048ac:	e8 79 f0 ff ff       	callq  40392a <get_ack_delay_time>
  4048b1:	f2 0f 11 45 a8       	movsd  %xmm0,-0x58(%rbp)
  4048b6:	48 8b 45 a8          	mov    -0x58(%rbp),%rax
  4048ba:	48 8b 55 f8          	mov    -0x8(%rbp),%rdx
  4048be:	48 89 42 30          	mov    %rax,0x30(%rdx)
  4048c2:	48 8b 45 c8          	mov    -0x38(%rbp),%rax
  4048c6:	48 8d 90 a0 01 00 00 	lea    0x1a0(%rax),%rdx
  4048cd:	48 8b 45 c8          	mov    -0x38(%rbp),%rax
  4048d1:	48 8b 80 a8 01 00 00 	mov    0x1a8(%rax),%rax
  4048d8:	48 8b 4d f8          	mov    -0x8(%rbp),%rcx
  4048dc:	48 83 c1 78          	add    $0x78,%rcx
  4048e0:	48 89 c6             	mov    %rax,%rsi
  4048e3:	48 89 cf             	mov    %rcx,%rdi
  4048e6:	e8 78 ed ff ff       	callq  403663 <list_insert>
  4048eb:	83 7d b8 01          	cmpl   $0x1,-0x48(%rbp)
  4048ef:	75 50                	jne    404941 <tcp_state_machine+0x4de>
  4048f1:	48 8b 55 c8          	mov    -0x38(%rbp),%rdx
  4048f5:	48 8b 45 b0          	mov    -0x50(%rbp),%rax
  4048f9:	48 89 82 c8 00 00 00 	mov    %rax,0xc8(%rdx)
  404900:	48 8b 45 c8          	mov    -0x38(%rbp),%rax
  404904:	8b 55 bc             	mov    -0x44(%rbp),%edx
  404907:	89 90 04 01 00 00    	mov    %edx,0x104(%rax)
  40490d:	48 8b 45 c8          	mov    -0x38(%rbp),%rax
  404911:	48 8d 88 70 01 00 00 	lea    0x170(%rax),%rcx
  404918:	48 8b 45 b0          	mov    -0x50(%rbp),%rax
  40491c:	8b 55 e0             	mov    -0x20(%rbp),%edx
  40491f:	48 89 ce             	mov    %rcx,%rsi
  404922:	48 89 45 a8          	mov    %rax,-0x58(%rbp)
  404926:	f2 0f 10 45 a8       	movsd  -0x58(%rbp),%xmm0
  40492b:	89 d7                	mov    %edx,%edi
  40492d:	e8 0d d7 ff ff       	callq  40203f <insert_seq_rtt>
  404932:	48 8b 45 c8          	mov    -0x38(%rbp),%rax
  404936:	8b 55 e0             	mov    -0x20(%rbp),%edx
  404939:	89 90 24 01 00 00    	mov    %edx,0x124(%rax)
  40493f:	eb 41                	jmp    404982 <tcp_state_machine+0x51f>
  404941:	48 8b 55 c8          	mov    -0x38(%rbp),%rdx
  404945:	48 8b 45 b0          	mov    -0x50(%rbp),%rax
  404949:	48 89 82 d0 00 00 00 	mov    %rax,0xd0(%rdx)
  404950:	48 8b 45 c8          	mov    -0x38(%rbp),%rax
  404954:	8b 55 e4             	mov    -0x1c(%rbp),%edx
  404957:	89 90 28 01 00 00    	mov    %edx,0x128(%rax)
  40495d:	48 8b 45 c8          	mov    -0x38(%rbp),%rax
  404961:	48 8d 88 80 01 00 00 	lea    0x180(%rax),%rcx
  404968:	48 8b 45 b0          	mov    -0x50(%rbp),%rax
  40496c:	8b 55 e4             	mov    -0x1c(%rbp),%edx
  40496f:	48 89 ce             	mov    %rcx,%rsi
  404972:	48 89 45 a8          	mov    %rax,-0x58(%rbp)
  404976:	f2 0f 10 45 a8       	movsd  -0x58(%rbp),%xmm0
  40497b:	89 d7                	mov    %edx,%edi
  40497d:	e8 bd d6 ff ff       	callq  40203f <insert_seq_rtt>
  404982:	48 8b 55 c8          	mov    -0x38(%rbp),%rdx
  404986:	48 8b 45 b0          	mov    -0x50(%rbp),%rax
  40498a:	48 89 82 e0 00 00 00 	mov    %rax,0xe0(%rdx)
  404991:	48 8b 45 c8          	mov    -0x38(%rbp),%rax
  404995:	8b 55 b8             	mov    -0x48(%rbp),%edx
  404998:	89 90 08 01 00 00    	mov    %edx,0x108(%rax)
  40499e:	b8 00 00 00 00       	mov    $0x0,%eax
  4049a3:	c9                   	leaveq 
  4049a4:	c3                   	retq   

00000000004049a5 <dump_list>:
  4049a5:	55                   	push   %rbp
  4049a6:	48 89 e5             	mov    %rsp,%rbp
  4049a9:	48 83 ec 30          	sub    $0x30,%rsp
  4049ad:	48 89 7d e8          	mov    %rdi,-0x18(%rbp)
  4049b1:	48 89 75 e0          	mov    %rsi,-0x20(%rbp)
  4049b5:	48 89 55 d8          	mov    %rdx,-0x28(%rbp)
  4049b9:	48 89 4d d0          	mov    %rcx,-0x30(%rbp)
  4049bd:	48 8b 55 e8          	mov    -0x18(%rbp),%rdx
  4049c1:	48 8b 45 e0          	mov    -0x20(%rbp),%rax
  4049c5:	48 89 d6             	mov    %rdx,%rsi
  4049c8:	48 89 c7             	mov    %rax,%rdi
  4049cb:	e8 70 c4 ff ff       	callq  400e40 <fputs@plt>
  4049d0:	48 8b 45 d0          	mov    -0x30(%rbp),%rax
  4049d4:	48 8b 00             	mov    (%rax),%rax
  4049d7:	48 89 45 f0          	mov    %rax,-0x10(%rbp)
  4049db:	eb 54                	jmp    404a31 <dump_list+0x8c>
  4049dd:	48 8b 45 f0          	mov    -0x10(%rbp),%rax
  4049e1:	48 83 e8 08          	sub    $0x8,%rax
  4049e5:	48 89 45 f8          	mov    %rax,-0x8(%rbp)
  4049e9:	48 8b 45 f8          	mov    -0x8(%rbp),%rax
  4049ed:	8b 50 04             	mov    0x4(%rax),%edx
  4049f0:	48 8b 45 d8          	mov    -0x28(%rbp),%rax
  4049f4:	8b 80 0c 01 00 00    	mov    0x10c(%rax),%eax
  4049fa:	89 d1                	mov    %edx,%ecx
  4049fc:	29 c1                	sub    %eax,%ecx
  4049fe:	48 8b 45 f8          	mov    -0x8(%rbp),%rax
  404a02:	8b 10                	mov    (%rax),%edx
  404a04:	48 8b 45 d8          	mov    -0x28(%rbp),%rax
  404a08:	8b 80 0c 01 00 00    	mov    0x10c(%rax),%eax
  404a0e:	29 c2                	sub    %eax,%edx
  404a10:	48 8b 45 e8          	mov    -0x18(%rbp),%rax
  404a14:	be a8 60 40 00       	mov    $0x4060a8,%esi
  404a19:	48 89 c7             	mov    %rax,%rdi
  404a1c:	b8 00 00 00 00       	mov    $0x0,%eax
  404a21:	e8 9a c4 ff ff       	callq  400ec0 <fprintf@plt>
  404a26:	48 8b 45 f0          	mov    -0x10(%rbp),%rax
  404a2a:	48 8b 00             	mov    (%rax),%rax
  404a2d:	48 89 45 f0          	mov    %rax,-0x10(%rbp)
  404a31:	48 8b 45 f0          	mov    -0x10(%rbp),%rax
  404a35:	48 3b 45 d0          	cmp    -0x30(%rbp),%rax
  404a39:	75 a2                	jne    4049dd <dump_list+0x38>
  404a3b:	48 8b 45 e8          	mov    -0x18(%rbp),%rax
  404a3f:	48 89 c6             	mov    %rax,%rsi
  404a42:	bf 0a 00 00 00       	mov    $0xa,%edi
  404a47:	e8 14 c4 ff ff       	callq  400e60 <fputc@plt>
  404a4c:	c9                   	leaveq 
  404a4d:	c3                   	retq   

0000000000404a4e <dump_time_list>:
  404a4e:	55                   	push   %rbp
  404a4f:	48 89 e5             	mov    %rsp,%rbp
  404a52:	48 83 ec 30          	sub    $0x30,%rsp
  404a56:	48 89 7d e8          	mov    %rdi,-0x18(%rbp)
  404a5a:	48 89 75 e0          	mov    %rsi,-0x20(%rbp)
  404a5e:	48 89 55 d8          	mov    %rdx,-0x28(%rbp)
  404a62:	48 89 4d d0          	mov    %rcx,-0x30(%rbp)
  404a66:	48 8b 55 e8          	mov    -0x18(%rbp),%rdx
  404a6a:	48 8b 45 e0          	mov    -0x20(%rbp),%rax
  404a6e:	48 89 d6             	mov    %rdx,%rsi
  404a71:	48 89 c7             	mov    %rax,%rdi
  404a74:	e8 c7 c3 ff ff       	callq  400e40 <fputs@plt>
  404a79:	48 8b 45 d0          	mov    -0x30(%rbp),%rax
  404a7d:	48 8b 00             	mov    (%rax),%rax
  404a80:	48 89 45 f0          	mov    %rax,-0x10(%rbp)
  404a84:	eb 58                	jmp    404ade <dump_time_list+0x90>
  404a86:	48 8b 45 f0          	mov    -0x10(%rbp),%rax
  404a8a:	48 83 e8 10          	sub    $0x10,%rax
  404a8e:	48 89 45 f8          	mov    %rax,-0x8(%rbp)
  404a92:	48 8b 45 f8          	mov    -0x8(%rbp),%rax
  404a96:	f2 0f 10 40 08       	movsd  0x8(%rax),%xmm0
  404a9b:	48 8b 45 d8          	mov    -0x28(%rbp),%rax
  404a9f:	f2 0f 10 88 d8 00 00 	movsd  0xd8(%rax),%xmm1
  404aa6:	00 
  404aa7:	f2 0f 5c c1          	subsd  %xmm1,%xmm0
  404aab:	48 8b 45 f8          	mov    -0x8(%rbp),%rax
  404aaf:	8b 10                	mov    (%rax),%edx
  404ab1:	48 8b 45 d8          	mov    -0x28(%rbp),%rax
  404ab5:	8b 80 0c 01 00 00    	mov    0x10c(%rax),%eax
  404abb:	29 c2                	sub    %eax,%edx
  404abd:	48 8b 45 e8          	mov    -0x18(%rbp),%rax
  404ac1:	be b1 60 40 00       	mov    $0x4060b1,%esi
  404ac6:	48 89 c7             	mov    %rax,%rdi
  404ac9:	b8 01 00 00 00       	mov    $0x1,%eax
  404ace:	e8 ed c3 ff ff       	callq  400ec0 <fprintf@plt>
  404ad3:	48 8b 45 f0          	mov    -0x10(%rbp),%rax
  404ad7:	48 8b 00             	mov    (%rax),%rax
  404ada:	48 89 45 f0          	mov    %rax,-0x10(%rbp)
  404ade:	48 8b 45 f0          	mov    -0x10(%rbp),%rax
  404ae2:	48 3b 45 d0          	cmp    -0x30(%rbp),%rax
  404ae6:	75 9e                	jne    404a86 <dump_time_list+0x38>
  404ae8:	48 8b 45 e8          	mov    -0x18(%rbp),%rax
  404aec:	48 89 c6             	mov    %rax,%rsi
  404aef:	bf 0a 00 00 00       	mov    $0xa,%edi
  404af4:	e8 67 c3 ff ff       	callq  400e60 <fputc@plt>
  404af9:	c9                   	leaveq 
  404afa:	c3                   	retq   

0000000000404afb <dump_tss_list>:
  404afb:	55                   	push   %rbp
  404afc:	48 89 e5             	mov    %rsp,%rbp
  404aff:	48 83 ec 30          	sub    $0x30,%rsp
  404b03:	48 89 7d d8          	mov    %rdi,-0x28(%rbp)
  404b07:	48 89 75 d0          	mov    %rsi,-0x30(%rbp)
  404b0b:	48 8b 45 d0          	mov    -0x30(%rbp),%rax
  404b0f:	48 8b 00             	mov    (%rax),%rax
  404b12:	48 89 45 f0          	mov    %rax,-0x10(%rbp)
  404b16:	eb 65                	jmp    404b7d <dump_tss_list+0x82>
  404b18:	48 8b 45 f0          	mov    -0x10(%rbp),%rax
  404b1c:	48 83 e8 78          	sub    $0x78,%rax
  404b20:	48 89 45 f8          	mov    %rax,-0x8(%rbp)
  404b24:	48 8b 55 f8          	mov    -0x8(%rbp),%rdx
  404b28:	48 8b 45 d8          	mov    -0x28(%rbp),%rax
  404b2c:	48 89 d6             	mov    %rdx,%rsi
  404b2f:	48 89 c7             	mov    %rax,%rdi
  404b32:	e8 9f 0b 00 00       	callq  4056d6 <dump_tss_info>
  404b37:	48 8b 45 f8          	mov    -0x8(%rbp),%rax
  404b3b:	48 89 c7             	mov    %rax,%rdi
  404b3e:	e8 1e ca ff ff       	callq  401561 <parse_stall>
  404b43:	89 45 ec             	mov    %eax,-0x14(%rbp)
  404b46:	8b 45 ec             	mov    -0x14(%rbp),%eax
  404b49:	48 8b 0c c5 c0 81 60 	mov    0x6081c0(,%rax,8),%rcx
  404b50:	00 
  404b51:	8b 45 ec             	mov    -0x14(%rbp),%eax
  404b54:	48 8b 14 c5 60 81 60 	mov    0x608160(,%rax,8),%rdx
  404b5b:	00 
  404b5c:	48 8b 45 d8          	mov    -0x28(%rbp),%rax
  404b60:	be bb 60 40 00       	mov    $0x4060bb,%esi
  404b65:	48 89 c7             	mov    %rax,%rdi
  404b68:	b8 00 00 00 00       	mov    $0x0,%eax
  404b6d:	e8 4e c3 ff ff       	callq  400ec0 <fprintf@plt>
  404b72:	48 8b 45 f0          	mov    -0x10(%rbp),%rax
  404b76:	48 8b 00             	mov    (%rax),%rax
  404b79:	48 89 45 f0          	mov    %rax,-0x10(%rbp)
  404b7d:	48 8b 45 f0          	mov    -0x10(%rbp),%rax
  404b81:	48 3b 45 d0          	cmp    -0x30(%rbp),%rax
  404b85:	75 91                	jne    404b18 <dump_tss_list+0x1d>
  404b87:	c9                   	leaveq 
  404b88:	c3                   	retq   

0000000000404b89 <dump_ts_info>:
  404b89:	55                   	push   %rbp
  404b8a:	48 89 e5             	mov    %rsp,%rbp
  404b8d:	48 83 ec 10          	sub    $0x10,%rsp
  404b91:	48 89 7d f8          	mov    %rdi,-0x8(%rbp)
  404b95:	48 89 75 f0          	mov    %rsi,-0x10(%rbp)
  404b99:	48 8b 45 f0          	mov    -0x10(%rbp),%rax
  404b9d:	48 8d 88 70 01 00 00 	lea    0x170(%rax),%rcx
  404ba4:	48 8b 55 f0          	mov    -0x10(%rbp),%rdx
  404ba8:	48 8b 45 f8          	mov    -0x8(%rbp),%rax
  404bac:	be c5 60 40 00       	mov    $0x4060c5,%esi
  404bb1:	48 89 c7             	mov    %rax,%rdi
  404bb4:	e8 95 fe ff ff       	callq  404a4e <dump_time_list>
  404bb9:	48 8b 45 f0          	mov    -0x10(%rbp),%rax
  404bbd:	48 8d 88 80 01 00 00 	lea    0x180(%rax),%rcx
  404bc4:	48 8b 55 f0          	mov    -0x10(%rbp),%rdx
  404bc8:	48 8b 45 f8          	mov    -0x8(%rbp),%rax
  404bcc:	be d3 60 40 00       	mov    $0x4060d3,%esi
  404bd1:	48 89 c7             	mov    %rax,%rdi
  404bd4:	e8 75 fe ff ff       	callq  404a4e <dump_time_list>
  404bd9:	48 8b 45 f0          	mov    -0x10(%rbp),%rax
  404bdd:	48 8d 88 90 01 00 00 	lea    0x190(%rax),%rcx
  404be4:	48 8b 55 f0          	mov    -0x10(%rbp),%rdx
  404be8:	48 8b 45 f8          	mov    -0x8(%rbp),%rax
  404bec:	be e2 60 40 00       	mov    $0x4060e2,%esi
  404bf1:	48 89 c7             	mov    %rax,%rdi
  404bf4:	e8 55 fe ff ff       	callq  404a4e <dump_time_list>
  404bf9:	48 8b 45 f0          	mov    -0x10(%rbp),%rax
  404bfd:	48 8d 88 40 01 00 00 	lea    0x140(%rax),%rcx
  404c04:	48 8b 55 f0          	mov    -0x10(%rbp),%rdx
  404c08:	48 8b 45 f8          	mov    -0x8(%rbp),%rax
  404c0c:	be f1 60 40 00       	mov    $0x4060f1,%esi
  404c11:	48 89 c7             	mov    %rax,%rdi
  404c14:	e8 8c fd ff ff       	callq  4049a5 <dump_list>
  404c19:	48 8b 45 f0          	mov    -0x10(%rbp),%rax
  404c1d:	48 8d 88 50 01 00 00 	lea    0x150(%rax),%rcx
  404c24:	48 8b 55 f0          	mov    -0x10(%rbp),%rdx
  404c28:	48 8b 45 f8          	mov    -0x8(%rbp),%rax
  404c2c:	be fa 60 40 00       	mov    $0x4060fa,%esi
  404c31:	48 89 c7             	mov    %rax,%rdi
  404c34:	e8 6c fd ff ff       	callq  4049a5 <dump_list>
  404c39:	48 8b 45 f0          	mov    -0x10(%rbp),%rax
  404c3d:	48 8d 88 60 01 00 00 	lea    0x160(%rax),%rcx
  404c44:	48 8b 55 f0          	mov    -0x10(%rbp),%rdx
  404c48:	48 8b 45 f8          	mov    -0x8(%rbp),%rax
  404c4c:	be 03 61 40 00       	mov    $0x406103,%esi
  404c51:	48 89 c7             	mov    %rax,%rdi
  404c54:	e8 4c fd ff ff       	callq  4049a5 <dump_list>
  404c59:	48 8b 45 f0          	mov    -0x10(%rbp),%rax
  404c5d:	8b 90 8c 00 00 00    	mov    0x8c(%rax),%edx
  404c63:	48 8b 45 f8          	mov    -0x8(%rbp),%rax
  404c67:	89 d1                	mov    %edx,%ecx
  404c69:	ba 0d 61 40 00       	mov    $0x40610d,%edx
  404c6e:	be 15 61 40 00       	mov    $0x406115,%esi
  404c73:	48 89 c7             	mov    %rax,%rdi
  404c76:	b8 00 00 00 00       	mov    $0x0,%eax
  404c7b:	e8 40 c2 ff ff       	callq  400ec0 <fprintf@plt>
  404c80:	48 8b 45 f0          	mov    -0x10(%rbp),%rax
  404c84:	8b 80 b4 01 00 00    	mov    0x1b4(%rax),%eax
  404c8a:	c1 e8 03             	shr    $0x3,%eax
  404c8d:	89 c0                	mov    %eax,%eax
  404c8f:	48 85 c0             	test   %rax,%rax
  404c92:	78 07                	js     404c9b <dump_ts_info+0x112>
  404c94:	f2 48 0f 2a c0       	cvtsi2sd %rax,%xmm0
  404c99:	eb 15                	jmp    404cb0 <dump_ts_info+0x127>
  404c9b:	48 89 c2             	mov    %rax,%rdx
  404c9e:	48 d1 ea             	shr    %rdx
  404ca1:	83 e0 01             	and    $0x1,%eax
  404ca4:	48 09 c2             	or     %rax,%rdx
  404ca7:	f2 48 0f 2a c2       	cvtsi2sd %rdx,%xmm0
  404cac:	f2 0f 58 c0          	addsd  %xmm0,%xmm0
  404cb0:	f2 0f 10 0d c0 14 00 	movsd  0x14c0(%rip),%xmm1        # 406178 <_IO_stdin_used+0x848>
  404cb7:	00 
  404cb8:	f2 0f 5e c1          	divsd  %xmm1,%xmm0
  404cbc:	48 8b 45 f8          	mov    -0x8(%rbp),%rax
  404cc0:	ba 1f 61 40 00       	mov    $0x40611f,%edx
  404cc5:	be 23 61 40 00       	mov    $0x406123,%esi
  404cca:	48 89 c7             	mov    %rax,%rdi
  404ccd:	b8 01 00 00 00       	mov    $0x1,%eax
  404cd2:	e8 e9 c1 ff ff       	callq  400ec0 <fprintf@plt>
  404cd7:	48 8b 45 f0          	mov    -0x10(%rbp),%rax
  404cdb:	8b 80 bc 01 00 00    	mov    0x1bc(%rax),%eax
  404ce1:	89 c0                	mov    %eax,%eax
  404ce3:	48 85 c0             	test   %rax,%rax
  404ce6:	78 07                	js     404cef <dump_ts_info+0x166>
  404ce8:	f2 48 0f 2a c0       	cvtsi2sd %rax,%xmm0
  404ced:	eb 15                	jmp    404d04 <dump_ts_info+0x17b>
  404cef:	48 89 c2             	mov    %rax,%rdx
  404cf2:	48 d1 ea             	shr    %rdx
  404cf5:	83 e0 01             	and    $0x1,%eax
  404cf8:	48 09 c2             	or     %rax,%rdx
  404cfb:	f2 48 0f 2a c2       	cvtsi2sd %rdx,%xmm0
  404d00:	f2 0f 58 c0          	addsd  %xmm0,%xmm0
